
bomb:     file format elf32-i386


Disassembly of section .init:

080486f4 <_init>:
 80486f4:	53                   	push   %ebx
 80486f5:	83 ec 08             	sub    $0x8,%esp
 80486f8:	e8 13 02 00 00       	call   8048910 <__x86.get_pc_thunk.bx>
 80486fd:	81 c3 03 39 00 00    	add    $0x3903,%ebx
 8048703:	8b 83 fc ff ff ff    	mov    -0x4(%ebx),%eax
 8048709:	85 c0                	test   %eax,%eax
 804870b:	74 05                	je     8048712 <_init+0x1e>
 804870d:	e8 be 01 00 00       	call   80488d0 <__gmon_start__@plt>
 8048712:	83 c4 08             	add    $0x8,%esp
 8048715:	5b                   	pop    %ebx
 8048716:	c3                   	ret    

Disassembly of section .plt:

08048720 <.plt>:
 8048720:	ff 35 04 c0 04 08    	push   0x804c004
 8048726:	ff 25 08 c0 04 08    	jmp    *0x804c008
 804872c:	00 00                	add    %al,(%eax)
	...

08048730 <read@plt>:
 8048730:	ff 25 0c c0 04 08    	jmp    *0x804c00c
 8048736:	68 00 00 00 00       	push   $0x0
 804873b:	e9 e0 ff ff ff       	jmp    8048720 <.plt>

08048740 <fflush@plt>:
 8048740:	ff 25 10 c0 04 08    	jmp    *0x804c010
 8048746:	68 08 00 00 00       	push   $0x8
 804874b:	e9 d0 ff ff ff       	jmp    8048720 <.plt>

08048750 <fgets@plt>:
 8048750:	ff 25 14 c0 04 08    	jmp    *0x804c014
 8048756:	68 10 00 00 00       	push   $0x10
 804875b:	e9 c0 ff ff ff       	jmp    8048720 <.plt>

08048760 <signal@plt>:
 8048760:	ff 25 18 c0 04 08    	jmp    *0x804c018
 8048766:	68 18 00 00 00       	push   $0x18
 804876b:	e9 b0 ff ff ff       	jmp    8048720 <.plt>

08048770 <sleep@plt>:
 8048770:	ff 25 1c c0 04 08    	jmp    *0x804c01c
 8048776:	68 20 00 00 00       	push   $0x20
 804877b:	e9 a0 ff ff ff       	jmp    8048720 <.plt>

08048780 <alarm@plt>:
 8048780:	ff 25 20 c0 04 08    	jmp    *0x804c020
 8048786:	68 28 00 00 00       	push   $0x28
 804878b:	e9 90 ff ff ff       	jmp    8048720 <.plt>

08048790 <__stack_chk_fail@plt>:
 8048790:	ff 25 24 c0 04 08    	jmp    *0x804c024
 8048796:	68 30 00 00 00       	push   $0x30
 804879b:	e9 80 ff ff ff       	jmp    8048720 <.plt>

080487a0 <strcpy@plt>:
 80487a0:	ff 25 28 c0 04 08    	jmp    *0x804c028
 80487a6:	68 38 00 00 00       	push   $0x38
 80487ab:	e9 70 ff ff ff       	jmp    8048720 <.plt>

080487b0 <getenv@plt>:
 80487b0:	ff 25 2c c0 04 08    	jmp    *0x804c02c
 80487b6:	68 40 00 00 00       	push   $0x40
 80487bb:	e9 60 ff ff ff       	jmp    8048720 <.plt>

080487c0 <puts@plt>:
 80487c0:	ff 25 30 c0 04 08    	jmp    *0x804c030
 80487c6:	68 48 00 00 00       	push   $0x48
 80487cb:	e9 50 ff ff ff       	jmp    8048720 <.plt>

080487d0 <__memmove_chk@plt>:
 80487d0:	ff 25 34 c0 04 08    	jmp    *0x804c034
 80487d6:	68 50 00 00 00       	push   $0x50
 80487db:	e9 40 ff ff ff       	jmp    8048720 <.plt>

080487e0 <exit@plt>:
 80487e0:	ff 25 38 c0 04 08    	jmp    *0x804c038
 80487e6:	68 58 00 00 00       	push   $0x58
 80487eb:	e9 30 ff ff ff       	jmp    8048720 <.plt>

080487f0 <__libc_start_main@plt>:
 80487f0:	ff 25 3c c0 04 08    	jmp    *0x804c03c
 80487f6:	68 60 00 00 00       	push   $0x60
 80487fb:	e9 20 ff ff ff       	jmp    8048720 <.plt>

08048800 <write@plt>:
 8048800:	ff 25 40 c0 04 08    	jmp    *0x804c040
 8048806:	68 68 00 00 00       	push   $0x68
 804880b:	e9 10 ff ff ff       	jmp    8048720 <.plt>

08048810 <__isoc99_sscanf@plt>:
 8048810:	ff 25 44 c0 04 08    	jmp    *0x804c044
 8048816:	68 70 00 00 00       	push   $0x70
 804881b:	e9 00 ff ff ff       	jmp    8048720 <.plt>

08048820 <fopen@plt>:
 8048820:	ff 25 48 c0 04 08    	jmp    *0x804c048
 8048826:	68 78 00 00 00       	push   $0x78
 804882b:	e9 f0 fe ff ff       	jmp    8048720 <.plt>

08048830 <__errno_location@plt>:
 8048830:	ff 25 4c c0 04 08    	jmp    *0x804c04c
 8048836:	68 80 00 00 00       	push   $0x80
 804883b:	e9 e0 fe ff ff       	jmp    8048720 <.plt>

08048840 <__printf_chk@plt>:
 8048840:	ff 25 50 c0 04 08    	jmp    *0x804c050
 8048846:	68 88 00 00 00       	push   $0x88
 804884b:	e9 d0 fe ff ff       	jmp    8048720 <.plt>

08048850 <socket@plt>:
 8048850:	ff 25 54 c0 04 08    	jmp    *0x804c054
 8048856:	68 90 00 00 00       	push   $0x90
 804885b:	e9 c0 fe ff ff       	jmp    8048720 <.plt>

08048860 <__fprintf_chk@plt>:
 8048860:	ff 25 58 c0 04 08    	jmp    *0x804c058
 8048866:	68 98 00 00 00       	push   $0x98
 804886b:	e9 b0 fe ff ff       	jmp    8048720 <.plt>

08048870 <gethostbyname@plt>:
 8048870:	ff 25 5c c0 04 08    	jmp    *0x804c05c
 8048876:	68 a0 00 00 00       	push   $0xa0
 804887b:	e9 a0 fe ff ff       	jmp    8048720 <.plt>

08048880 <strtol@plt>:
 8048880:	ff 25 60 c0 04 08    	jmp    *0x804c060
 8048886:	68 a8 00 00 00       	push   $0xa8
 804888b:	e9 90 fe ff ff       	jmp    8048720 <.plt>

08048890 <connect@plt>:
 8048890:	ff 25 64 c0 04 08    	jmp    *0x804c064
 8048896:	68 b0 00 00 00       	push   $0xb0
 804889b:	e9 80 fe ff ff       	jmp    8048720 <.plt>

080488a0 <close@plt>:
 80488a0:	ff 25 68 c0 04 08    	jmp    *0x804c068
 80488a6:	68 b8 00 00 00       	push   $0xb8
 80488ab:	e9 70 fe ff ff       	jmp    8048720 <.plt>

080488b0 <__ctype_b_loc@plt>:
 80488b0:	ff 25 6c c0 04 08    	jmp    *0x804c06c
 80488b6:	68 c0 00 00 00       	push   $0xc0
 80488bb:	e9 60 fe ff ff       	jmp    8048720 <.plt>

080488c0 <__sprintf_chk@plt>:
 80488c0:	ff 25 70 c0 04 08    	jmp    *0x804c070
 80488c6:	68 c8 00 00 00       	push   $0xc8
 80488cb:	e9 50 fe ff ff       	jmp    8048720 <.plt>

Disassembly of section .plt.got:

080488d0 <__gmon_start__@plt>:
 80488d0:	ff 25 fc bf 04 08    	jmp    *0x804bffc
 80488d6:	66 90                	xchg   %ax,%ax

Disassembly of section .text:

080488e0 <_start>:
 80488e0:	31 ed                	xor    %ebp,%ebp
 80488e2:	5e                   	pop    %esi
 80488e3:	89 e1                	mov    %esp,%ecx
 80488e5:	83 e4 f0             	and    $0xfffffff0,%esp
 80488e8:	50                   	push   %eax
 80488e9:	54                   	push   %esp
 80488ea:	52                   	push   %edx
 80488eb:	68 90 9e 04 08       	push   $0x8049e90
 80488f0:	68 30 9e 04 08       	push   $0x8049e30
 80488f5:	51                   	push   %ecx
 80488f6:	56                   	push   %esi
 80488f7:	68 db 89 04 08       	push   $0x80489db
 80488fc:	e8 ef fe ff ff       	call   80487f0 <__libc_start_main@plt>
 8048901:	f4                   	hlt    
 8048902:	66 90                	xchg   %ax,%ax
 8048904:	66 90                	xchg   %ax,%ax
 8048906:	66 90                	xchg   %ax,%ax
 8048908:	66 90                	xchg   %ax,%ax
 804890a:	66 90                	xchg   %ax,%ax
 804890c:	66 90                	xchg   %ax,%ax
 804890e:	66 90                	xchg   %ax,%ax

08048910 <__x86.get_pc_thunk.bx>:
 8048910:	8b 1c 24             	mov    (%esp),%ebx
 8048913:	c3                   	ret    
 8048914:	66 90                	xchg   %ax,%ax
 8048916:	66 90                	xchg   %ax,%ax
 8048918:	66 90                	xchg   %ax,%ax
 804891a:	66 90                	xchg   %ax,%ax
 804891c:	66 90                	xchg   %ax,%ax
 804891e:	66 90                	xchg   %ax,%ax

08048920 <deregister_tm_clones>:
 8048920:	b8 a3 c3 04 08       	mov    $0x804c3a3,%eax
 8048925:	2d a0 c3 04 08       	sub    $0x804c3a0,%eax
 804892a:	83 f8 06             	cmp    $0x6,%eax
 804892d:	76 1a                	jbe    8048949 <deregister_tm_clones+0x29>
 804892f:	b8 00 00 00 00       	mov    $0x0,%eax
 8048934:	85 c0                	test   %eax,%eax
 8048936:	74 11                	je     8048949 <deregister_tm_clones+0x29>
 8048938:	55                   	push   %ebp
 8048939:	89 e5                	mov    %esp,%ebp
 804893b:	83 ec 14             	sub    $0x14,%esp
 804893e:	68 a0 c3 04 08       	push   $0x804c3a0
 8048943:	ff d0                	call   *%eax
 8048945:	83 c4 10             	add    $0x10,%esp
 8048948:	c9                   	leave  
 8048949:	f3 c3                	repz ret 
 804894b:	90                   	nop
 804894c:	8d 74 26 00          	lea    0x0(%esi,%eiz,1),%esi

08048950 <register_tm_clones>:
 8048950:	b8 a0 c3 04 08       	mov    $0x804c3a0,%eax
 8048955:	2d a0 c3 04 08       	sub    $0x804c3a0,%eax
 804895a:	c1 f8 02             	sar    $0x2,%eax
 804895d:	89 c2                	mov    %eax,%edx
 804895f:	c1 ea 1f             	shr    $0x1f,%edx
 8048962:	01 d0                	add    %edx,%eax
 8048964:	d1 f8                	sar    %eax
 8048966:	74 1b                	je     8048983 <register_tm_clones+0x33>
 8048968:	ba 00 00 00 00       	mov    $0x0,%edx
 804896d:	85 d2                	test   %edx,%edx
 804896f:	74 12                	je     8048983 <register_tm_clones+0x33>
 8048971:	55                   	push   %ebp
 8048972:	89 e5                	mov    %esp,%ebp
 8048974:	83 ec 10             	sub    $0x10,%esp
 8048977:	50                   	push   %eax
 8048978:	68 a0 c3 04 08       	push   $0x804c3a0
 804897d:	ff d2                	call   *%edx
 804897f:	83 c4 10             	add    $0x10,%esp
 8048982:	c9                   	leave  
 8048983:	f3 c3                	repz ret 
 8048985:	8d 74 26 00          	lea    0x0(%esi,%eiz,1),%esi
 8048989:	8d bc 27 00 00 00 00 	lea    0x0(%edi,%eiz,1),%edi

08048990 <__do_global_dtors_aux>:
 8048990:	80 3d c8 c3 04 08 00 	cmpb   $0x0,0x804c3c8
 8048997:	75 13                	jne    80489ac <__do_global_dtors_aux+0x1c>
 8048999:	55                   	push   %ebp
 804899a:	89 e5                	mov    %esp,%ebp
 804899c:	83 ec 08             	sub    $0x8,%esp
 804899f:	e8 7c ff ff ff       	call   8048920 <deregister_tm_clones>
 80489a4:	c6 05 c8 c3 04 08 01 	movb   $0x1,0x804c3c8
 80489ab:	c9                   	leave  
 80489ac:	f3 c3                	repz ret 
 80489ae:	66 90                	xchg   %ax,%ax

080489b0 <frame_dummy>:
 80489b0:	b8 10 bf 04 08       	mov    $0x804bf10,%eax
 80489b5:	8b 10                	mov    (%eax),%edx
 80489b7:	85 d2                	test   %edx,%edx
 80489b9:	75 05                	jne    80489c0 <frame_dummy+0x10>
 80489bb:	eb 93                	jmp    8048950 <register_tm_clones>
 80489bd:	8d 76 00             	lea    0x0(%esi),%esi
 80489c0:	ba 00 00 00 00       	mov    $0x0,%edx
 80489c5:	85 d2                	test   %edx,%edx
 80489c7:	74 f2                	je     80489bb <frame_dummy+0xb>
 80489c9:	55                   	push   %ebp
 80489ca:	89 e5                	mov    %esp,%ebp
 80489cc:	83 ec 14             	sub    $0x14,%esp
 80489cf:	50                   	push   %eax
 80489d0:	ff d2                	call   *%edx
 80489d2:	83 c4 10             	add    $0x10,%esp
 80489d5:	c9                   	leave  
 80489d6:	e9 75 ff ff ff       	jmp    8048950 <register_tm_clones>

080489db <main>:
 80489db:	8d 4c 24 04          	lea    0x4(%esp),%ecx
 80489df:	83 e4 f0             	and    $0xfffffff0,%esp
 80489e2:	ff 71 fc             	push   -0x4(%ecx)
 80489e5:	55                   	push   %ebp
 80489e6:	89 e5                	mov    %esp,%ebp
 80489e8:	53                   	push   %ebx
 80489e9:	51                   	push   %ecx
 80489ea:	8b 01                	mov    (%ecx),%eax
 80489ec:	8b 59 04             	mov    0x4(%ecx),%ebx
 80489ef:	83 f8 01             	cmp    $0x1,%eax
 80489f2:	0f 84 01 01 00 00    	je     8048af9 <main+0x11e>
 80489f8:	83 f8 02             	cmp    $0x2,%eax
 80489fb:	0f 85 24 01 00 00    	jne    8048b25 <main+0x14a>
 8048a01:	83 ec 08             	sub    $0x8,%esp
 8048a04:	68 c8 9e 04 08       	push   $0x8049ec8
 8048a09:	ff 73 04             	push   0x4(%ebx)
 8048a0c:	e8 0f fe ff ff       	call   8048820 <fopen@plt>
 8048a11:	a3 d0 c3 04 08       	mov    %eax,0x804c3d0
 8048a16:	83 c4 10             	add    $0x10,%esp
 8048a19:	85 c0                	test   %eax,%eax
 8048a1b:	0f 84 e7 00 00 00    	je     8048b08 <main+0x12d>
 8048a21:	e8 2f 06 00 00       	call   8049055 <initialize_bomb>
 8048a26:	83 ec 0c             	sub    $0xc,%esp
 8048a29:	68 4c 9f 04 08       	push   $0x8049f4c
 8048a2e:	e8 8d fd ff ff       	call   80487c0 <puts@plt>
 8048a33:	c7 04 24 88 9f 04 08 	movl   $0x8049f88,(%esp)
 8048a3a:	e8 81 fd ff ff       	call   80487c0 <puts@plt>
 8048a3f:	e8 01 07 00 00       	call   8049145 <read_line>
 8048a44:	89 04 24             	mov    %eax,(%esp)
 8048a47:	e8 f6 00 00 00       	call   8048b42 <phase_1>
 8048a4c:	e8 f3 07 00 00       	call   8049244 <phase_defused>
 8048a51:	c7 04 24 b4 9f 04 08 	movl   $0x8049b4,(%esp)  
 8048a58:	e8 63 fd ff ff       	call   80487c0f <puts@plt>
 8048a5d:	e8 e3 06 00 00       	call   8049145 <read_line>
 8048a62:	89 04 24             	mov    %eax,(%esp)
 8048a65:	e8 fb 00 00 00       	call   8048b65 <phase_2>
 8048a6a:	e8 d5 07 00 00       	call   8049244 <phase_defused>
 8048a6f:	c7 04 24 01 9f 04 08 	movl   $0x8049f01,(%esp)
 8048a76:	e8 45 fd ff ff       	call   80487c0 <puts@plt>
 8048a7b:	e8 c5 06 00 00       	call   8049145 <read_line>
 8048a80:	89 04 24             	mov    %eax,(%esp)
 8048a83:	e8 44 01 00 00       	call   8048bcc <phase_3>
 8048a88:	e8 b7 07 00 00       	call   8049244 <phase_defused>
 8048a8d:	c7 04 24 1f 9f 04 08 	movl   $0x8049f1f,(%esp)
 8048a94:	e8 27 fd ff ff       	call   80487c0 <puts@plt>
 8048a99:	e8 a7 06 00 00       	call   8049145 <read_line>
 8048a9e:	89 04 24             	mov    %eax,(%esp)
 8048aa1:	e8 59 02 00 00       	call   8048cff <phase_4>
 8048aa6:	e8 99 07 00 00       	call   8049244 <phase_defused>
 8048aab:	c7 04 24 e0 9f 04 08 	movl   $0x8049fe0,(%esp)
 8048ab2:	e8 09 fd ff ff       	call   80487c0 <puts@plt>
 8048ab7:	e8 89 06 00 00       	call   8049145 <read_line>
 8048abc:	89 04 24             	mov    %eax,(%esp)
 8048abf:	e8 b4 02 00 00       	call   8048d78 <phase_5>
 8048ac4:	e8 7b 07 00 00       	call   8049244 <phase_defused>
 8048ac9:	c7 04 24 2e 9f 04 08 	movl   $0x8049f2e,(%esp)
 8048ad0:	e8 eb fc ff ff       	call   80487c0 <puts@plt>
 8048ad5:	e8 6b 06 00 00       	call   8049145 <read_line>
 8048ada:	89 04 24             	mov    %eax,(%esp)
 8048add:	e8 de 02 00 00       	call   8048dc0 <phase_6>
 8048ae2:	e8 5d 07 00 00       	call   8049244 <phase_defused>
 8048ae7:	83 c4 10             	add    $0x10,%esp
 8048aea:	b8 00 00 00 00       	mov    $0x0,%eax
 8048aef:	8d 65 f8             	lea    -0x8(%ebp),%esp
 8048af2:	59                   	pop    %ecx
 8048af3:	5b                   	pop    %ebx
 8048af4:	5d                   	pop    %ebp
 8048af5:	8d 61 fc             	lea    -0x4(%ecx),%esp
 8048af8:	c3                   	ret    
 8048af9:	a1 c0 c3 04 08       	mov    0x804c3c0,%eax
 8048afe:	a3 d0 c3 04 08       	mov    %eax,0x804c3d0
 8048b03:	e9 19 ff ff ff       	jmp    8048a21 <main+0x46>
 8048b08:	ff 73 04             	push   0x4(%ebx)
 8048b0b:	ff 33                	push   (%ebx)
 8048b0d:	68 ca 9e 04 08       	push   $0x8049eca
 8048b12:	6a 01                	push   $0x1
 8048b14:	e8 27 fd ff ff       	call   8048840 <__printf_chk@plt>
 8048b19:	c7 04 24 08 00 00 00 	movl   $0x8,(%esp)
 8048b20:	e8 bb fc ff ff       	call   80487e0 <exit@plt>
 8048b25:	83 ec 04             	sub    $0x4,%esp
 8048b28:	ff 33                	push   (%ebx)
 8048b2a:	68 e7 9e 04 08       	push   $0x8049ee7
 8048b2f:	6a 01                	push   $0x1
 8048b31:	e8 0a fd ff ff       	call   8048840 <__printf_chk@plt>
 8048b36:	c7 04 24 08 00 00 00 	movl   $0x8,(%esp)
 8048b3d:	e8 9e fc ff ff       	call   80487e0 <exit@plt>

08048b42 <phase_1>:
 8048b42:	83 ec 14             	sub    $0x14,%esp
 8048b45:	68 04 a0 04 08       	push   $0x804a004
 8048b4a:	ff 74 24 1c          	push   0x1c(%esp)
 8048b4e:	e8 9d 04 00 00       	call   8048ff0 <strings_not_equal>
 8048b53:	83 c4 10             	add    $0x10,%esp
 8048b56:	85 c0                	test   %eax,%eax
 8048b58:	75 04                	jne    8048b5e <phase_1+0x1c>
 8048b5a:	83 c4 0c             	add    $0xc,%esp
 8048b5d:	c3                   	ret    
 8048b5e:	e8 82 05 00 00       	call   80490e5 <explode_bomb>
 8048b63:	eb f5                	jmp    8048b5a <phase_1+0x18>

08048b65 <phase_2>:
 8048b65:	53                   	push   %ebx
 8048b66:	83 ec 30             	sub    $0x30,%esp
 8048b69:	65 a1 14 00 00 00    	mov    %gs:0x14,%eax
 8048b6f:	89 44 24 24          	mov    %eax,0x24(%esp)
 8048b73:	31 c0                	xor    %eax,%eax
 8048b75:	8d 44 24 0c          	lea    0xc(%esp),%eax
 8048b79:	50                   	push   %eax
 8048b7a:	ff 74 24 3c          	push   0x3c(%esp)
 8048b7e:	e8 87 05 00 00       	call   804910a <read_six_numbers>
 8048b83:	83 c4 10             	add    $0x10,%esp
 8048b86:	83 7c 24 04 00       	cmpl   $0x0,0x4(%esp)
 8048b8b:	78 07                	js     8048b94 <phase_2+0x2f>
 8048b8d:	bb 01 00 00 00       	mov    $0x1,%ebx
 8048b92:	eb 0f                	jmp    8048ba3 <phase_2+0x3e>
 8048b94:	e8 4c 05 00 00       	call   80490e5 <explode_bomb>
 8048b99:	eb f2                	jmp    8048b8d <phase_2+0x28>
 8048b9b:	83 c3 01             	add    $0x1,%ebx
 8048b9e:	83 fb 06             	cmp    $0x6,%ebx
 8048ba1:	74 12                	je     8048bb5 <phase_2+0x50>
 8048ba3:	89 d8                	mov    %ebx,%eax
 8048ba5:	03 04 9c             	add    (%esp,%ebx,4),%eax
 8048ba8:	39 44 9c 04          	cmp    %eax,0x4(%esp,%ebx,4)
 8048bac:	74 ed                	je     8048b9b <phase_2+0x36>
 8048bae:	e8 32 05 00 00       	call   80490e5 <explode_bomb>
 8048bb3:	eb e6                	jmp    8048b9b <phase_2+0x36>
 8048bb5:	8b 44 24 1c          	mov    0x1c(%esp),%eax
 8048bb9:	65 33 05 14 00 00 00 	xor    %gs:0x14,%eax
 8048bc0:	75 05                	jne    8048bc7 <phase_2+0x62>
 8048bc2:	83 c4 28             	add    $0x28,%esp
 8048bc5:	5b                   	pop    %ebx
 8048bc6:	c3                   	ret    
 8048bc7:	e8 c4 fb ff ff       	call   8048790 <__stack_chk_fail@plt>

08048bcc <phase_3>:
 8048bcc:	83 ec 1c             	sub    $0x1c,%esp
 8048bcf:	65 a1 14 00 00 00    	mov    %gs:0x14,%eax
 8048bd5:	89 44 24 0c          	mov    %eax,0xc(%esp)
 8048bd9:	31 c0                	xor    %eax,%eax
 8048bdb:	8d 44 24 08          	lea    0x8(%esp),%eax
 8048bdf:	50                   	push   %eax
 8048be0:	8d 44 24 08          	lea    0x8(%esp),%eax
 8048be4:	50                   	push   %eax
 8048be5:	68 cf a1 04 08       	push   $0x804a1cf
 8048bea:	ff 74 24 2c          	push   0x2c(%esp)
 8048bee:	e8 1d fc ff ff       	call   8048810 <__isoc99_sscanf@plt>
 8048bf3:	83 c4 10             	add    $0x10,%esp
 8048bf6:	83 f8 01             	cmp    $0x1,%eax
 8048bf9:	7e 16                	jle    8048c11 <phase_3+0x45>
 8048bfb:	83 7c 24 04 07       	cmpl   $0x7,0x4(%esp)
 8048c00:	0f 87 8e 00 00 00    	ja     8048c94 <phase_3+0xc8>
 8048c06:	8b 44 24 04          	mov    0x4(%esp),%eax
 8048c0a:	ff 24 85 60 a0 04 08 	jmp    *0x804a060(,%eax,4)
 8048c11:	e8 cf 04 00 00       	call   80490e5 <explode_bomb>
 8048c16:	eb e3                	jmp    8048bfb <phase_3+0x2f>
 8048c18:	b8 56 03 00 00       	mov    $0x356,%eax
 8048c1d:	eb 05                	jmp    8048c24 <phase_3+0x58>
 8048c1f:	b8 00 00 00 00       	mov    $0x0,%eax
 8048c24:	2d 17 02 00 00       	sub    $0x217,%eax
 8048c29:	05 93 03 00 00       	add    $0x393,%eax
 8048c2e:	2d 36 01 00 00       	sub    $0x136,%eax
 8048c33:	05 36 01 00 00       	add    $0x136,%eax
 8048c38:	2d 36 01 00 00       	sub    $0x136,%eax
 8048c3d:	05 36 01 00 00       	add    $0x136,%eax
 8048c42:	2d 36 01 00 00       	sub    $0x136,%eax
 8048c47:	83 7c 24 04 05       	cmpl   $0x5,0x4(%esp)
 8048c4c:	7f 06                	jg     8048c54 <phase_3+0x88>
 8048c4e:	3b 44 24 08          	cmp    0x8(%esp),%eax
 8048c52:	74 05                	je     8048c59 <phase_3+0x8d>
 8048c54:	e8 8c 04 00 00       	call   80490e5 <explode_bomb>
 8048c59:	8b 44 24 0c          	mov    0xc(%esp),%eax
 8048c5d:	65 33 05 14 00 00 00 	xor    %gs:0x14,%eax
 8048c64:	75 3a                	jne    8048ca0 <phase_3+0xd4>
 8048c66:	83 c4 1c             	add    $0x1c,%esp
 8048c69:	c3                   	ret    
 8048c6a:	b8 00 00 00 00       	mov    $0x0,%eax
 8048c6f:	eb b8                	jmp    8048c29 <phase_3+0x5d>
 8048c71:	b8 00 00 00 00       	mov    $0x0,%eax
 8048c76:	eb b6                	jmp    8048c2e <phase_3+0x62>
 8048c78:	b8 00 00 00 00       	mov    $0x0,%eax
 8048c7d:	eb b4                	jmp    8048c33 <phase_3+0x67>
 8048c7f:	b8 00 00 00 00       	mov    $0x0,%eax
 8048c84:	eb b2                	jmp    8048c38 <phase_3+0x6c>
 8048c86:	b8 00 00 00 00       	mov    $0x0,%eax
 8048c8b:	eb b0                	jmp    8048c3d <phase_3+0x71>
 8048c8d:	b8 00 00 00 00       	mov    $0x0,%eax
 8048c92:	eb ae                	jmp    8048c42 <phase_3+0x76>
 8048c94:	e8 4c 04 00 00       	call   80490e5 <explode_bomb>
 8048c99:	b8 00 00 00 00       	mov    $0x0,%eax
 8048c9e:	eb a7                	jmp    8048c47 <phase_3+0x7b>
 8048ca0:	e8 eb fa ff ff       	call   8048790 <__stack_chk_fail@plt>

08048ca5 <func4>:
 8048ca5:	56                   	push   %esi
 8048ca6:	53                   	push   %ebx
 8048ca7:	83 ec 04             	sub    $0x4,%esp
 8048caa:	8b 44 24 10          	mov    0x10(%esp),%eax
 8048cae:	8b 54 24 14          	mov    0x14(%esp),%edx
 8048cb2:	8b 4c 24 18          	mov    0x18(%esp),%ecx
 8048cb6:	89 ce                	mov    %ecx,%esi
 8048cb8:	29 d6                	sub    %edx,%esi
 8048cba:	89 f3                	mov    %esi,%ebx
 8048cbc:	c1 eb 1f             	shr    $0x1f,%ebx
 8048cbf:	01 f3                	add    %esi,%ebx
 8048cc1:	d1 fb                	sar    %ebx
 8048cc3:	01 d3                	add    %edx,%ebx
 8048cc5:	39 c3                	cmp    %eax,%ebx
 8048cc7:	7f 0c                	jg     8048cd5 <func4+0x30>
 8048cc9:	39 c3                	cmp    %eax,%ebx
 8048ccb:	7c 1d                	jl     8048cea <func4+0x45>
 8048ccd:	89 d8                	mov    %ebx,%eax
 8048ccf:	83 c4 04             	add    $0x4,%esp
 8048cd2:	5b                   	pop    %ebx
 8048cd3:	5e                   	pop    %esi
 8048cd4:	c3                   	ret    
 8048cd5:	83 ec 04             	sub    $0x4,%esp
 8048cd8:	8d 4b ff             	lea    -0x1(%ebx),%ecx
 8048cdb:	51                   	push   %ecx
 8048cdc:	52                   	push   %edx
 8048cdd:	50                   	push   %eax
 8048cde:	e8 c2 ff ff ff       	call   8048ca5 <func4>
 8048ce3:	83 c4 10             	add    $0x10,%esp
 8048ce6:	01 c3                	add    %eax,%ebx
 8048ce8:	eb e3                	jmp    8048ccd <func4+0x28>
 8048cea:	83 ec 04             	sub    $0x4,%esp
 8048ced:	51                   	push   %ecx
 8048cee:	8d 53 01             	lea    0x1(%ebx),%edx
 8048cf1:	52                   	push   %edx
 8048cf2:	50                   	push   %eax
 8048cf3:	e8 ad ff ff ff       	call   8048ca5 <func4>
 8048cf8:	83 c4 10             	add    $0x10,%esp
 8048cfb:	01 c3                	add    %eax,%ebx
 8048cfd:	eb ce                	jmp    8048ccd <func4+0x28>

08048cff <phase_4>:
 8048cff:	83 ec 1c             	sub    $0x1c,%esp
 8048d02:	65 a1 14 00 00 00    	mov    %gs:0x14,%eax
 8048d08:	89 44 24 0c          	mov    %eax,0xc(%esp)
 8048d0c:	31 c0                	xor    %eax,%eax
 8048d0e:	8d 44 24 08          	lea    0x8(%esp),%eax
 8048d12:	50                   	push   %eax
 8048d13:	8d 44 24 08          	lea    0x8(%esp),%eax
 8048d17:	50                   	push   %eax
 8048d18:	68 cf a1 04 08       	push   $0x804a1cf
 8048d1d:	ff 74 24 2c          	push   0x2c(%esp)
 8048d21:	e8 ea fa ff ff       	call   8048810 <__isoc99_sscanf@plt>
 8048d26:	83 c4 10             	add    $0x10,%esp
 8048d29:	83 f8 02             	cmp    $0x2,%eax
 8048d2c:	74 33                	je     8048d61 <phase_4+0x62>
 8048d2e:	e8 b2 03 00 00       	call   80490e5 <explode_bomb>
 8048d33:	83 ec 04             	sub    $0x4,%esp
 8048d36:	6a 0e                	push   $0xe
 8048d38:	6a 00                	push   $0x0
 8048d3a:	ff 74 24 10          	push   0x10(%esp)
 8048d3e:	e8 62 ff ff ff       	call   8048ca5 <func4>
 8048d43:	83 c4 10             	add    $0x10,%esp
 8048d46:	83 f8 15             	cmp    $0x15,%eax
 8048d49:	74 1f                	je     8048d6a <phase_4+0x6b>
 8048d4b:	e8 95 03 00 00       	call   80490e5 <explode_bomb>
 8048d50:	8b 44 24 0c          	mov    0xc(%esp),%eax
 8048d54:	65 33 05 14 00 00 00 	xor    %gs:0x14,%eax
 8048d5b:	75 16                	jne    8048d73 <phase_4+0x74>
 8048d5d:	83 c4 1c             	add    $0x1c,%esp
 8048d60:	c3                   	ret    
 8048d61:	83 7c 24 04 0e       	cmpl   $0xe,0x4(%esp)
 8048d66:	76 cb                	jbe    8048d33 <phase_4+0x34>
 8048d68:	eb c4                	jmp    8048d2e <phase_4+0x2f>
 8048d6a:	83 7c 24 08 15       	cmpl   $0x15,0x8(%esp)
 8048d6f:	75 da                	jne    8048d4b <phase_4+0x4c>
 8048d71:	eb dd                	jmp    8048d50 <phase_4+0x51>
 8048d73:	e8 18 fa ff ff       	call   8048790 <__stack_chk_fail@plt>

08048d78 <phase_5>:
 8048d78:	53                   	push   %ebx
 8048d79:	83 ec 14             	sub    $0x14,%esp
 8048d7c:	8b 5c 24 1c          	mov    0x1c(%esp),%ebx
 8048d80:	53                   	push   %ebx
 8048d81:	e8 4b 02 00 00       	call   8048fd1 <string_length>
 8048d86:	83 c4 10             	add    $0x10,%esp
 8048d89:	83 f8 06             	cmp    $0x6,%eax
 8048d8c:	74 05                	je     8048d93 <phase_5+0x1b>
 8048d8e:	e8 52 03 00 00       	call   80490e5 <explode_bomb>
 8048d93:	89 d8                	mov    %ebx,%eax
 8048d95:	83 c3 06             	add    $0x6,%ebx
 8048d98:	b9 00 00 00 00       	mov    $0x0,%ecx
 8048d9d:	0f b6 10             	movzbl (%eax),%edx
 8048da0:	83 e2 0f             	and    $0xf,%edx
 8048da3:	03 0c 95 80 a0 04 08 	add    0x804a080(,%edx,4),%ecx
 8048daa:	83 c0 01             	add    $0x1,%eax
 8048dad:	39 d8                	cmp    %ebx,%eax
 8048daf:	75 ec                	jne    8048d9d <phase_5+0x25>
 8048db1:	83 f9 3c             	cmp    $0x3c,%ecx
 8048db4:	74 05                	je     8048dbb <phase_5+0x43>
 8048db6:	e8 2a 03 00 00       	call   80490e5 <explode_bomb>
 8048dbb:	83 c4 08             	add    $0x8,%esp
 8048dbe:	5b                   	pop    %ebx
 8048dbf:	c3                   	ret    

08048dc0 <phase_6>:
 8048dc0:	56                   	push   %esi
 8048dc1:	53                   	push   %ebx
 8048dc2:	83 ec 4c             	sub    $0x4c,%esp
 8048dc5:	65 a1 14 00 00 00    	mov    %gs:0x14,%eax
 8048dcb:	89 44 24 44          	mov    %eax,0x44(%esp)
 8048dcf:	31 c0                	xor    %eax,%eax
 8048dd1:	8d 44 24 14          	lea    0x14(%esp),%eax
 8048dd5:	50                   	push   %eax
 8048dd6:	ff 74 24 5c          	push   0x5c(%esp)
 8048dda:	e8 2b 03 00 00       	call   804910a <read_six_numbers>
 8048ddf:	83 c4 10             	add    $0x10,%esp
 8048de2:	be 00 00 00 00       	mov    $0x0,%esi
 8048de7:	eb 1c                	jmp    8048e05 <phase_6+0x45>
 8048de9:	83 c6 01             	add    $0x1,%esi
 8048dec:	83 fe 06             	cmp    $0x6,%esi
 8048def:	74 2e                	je     8048e1f <phase_6+0x5f>
 8048df1:	89 f3                	mov    %esi,%ebx
 8048df3:	8b 44 9c 0c          	mov    0xc(%esp,%ebx,4),%eax
 8048df7:	39 44 b4 08          	cmp    %eax,0x8(%esp,%esi,4)
 8048dfb:	74 1b                	je     8048e18 <phase_6+0x58>
 8048dfd:	83 c3 01             	add    $0x1,%ebx
 8048e00:	83 fb 05             	cmp    $0x5,%ebx
 8048e03:	7e ee                	jle    8048df3 <phase_6+0x33>
 8048e05:	8b 44 b4 0c          	mov    0xc(%esp,%esi,4),%eax
 8048e09:	83 e8 01             	sub    $0x1,%eax
 8048e0c:	83 f8 05             	cmp    $0x5,%eax
 8048e0f:	76 d8                	jbe    8048de9 <phase_6+0x29>
 8048e11:	e8 cf 02 00 00       	call   80490e5 <explode_bomb>
 8048e16:	eb d1                	jmp    8048de9 <phase_6+0x29>
 8048e18:	e8 c8 02 00 00       	call   80490e5 <explode_bomb>
 8048e1d:	eb de                	jmp    8048dfd <phase_6+0x3d>
 8048e1f:	bb 00 00 00 00       	mov    $0x0,%ebx
 8048e24:	89 de                	mov    %ebx,%esi
 8048e26:	8b 4c 9c 0c          	mov    0xc(%esp,%ebx,4),%ecx
 8048e2a:	b8 01 00 00 00       	mov    $0x1,%eax
 8048e2f:	ba 3c c1 04 08       	mov    $0x804c13c,%edx
 8048e34:	83 f9 01             	cmp    $0x1,%ecx
 8048e37:	7e 0a                	jle    8048e43 <phase_6+0x83>
 8048e39:	8b 52 08             	mov    0x8(%edx),%edx
 8048e3c:	83 c0 01             	add    $0x1,%eax
 8048e3f:	39 c8                	cmp    %ecx,%eax
 8048e41:	75 f6                	jne    8048e39 <phase_6+0x79>
 8048e43:	89 54 b4 24          	mov    %edx,0x24(%esp,%esi,4)
 8048e47:	83 c3 01             	add    $0x1,%ebx
 8048e4a:	83 fb 06             	cmp    $0x6,%ebx
 8048e4d:	75 d5                	jne    8048e24 <phase_6+0x64>
 8048e4f:	8b 5c 24 24          	mov    0x24(%esp),%ebx
 8048e53:	89 d9                	mov    %ebx,%ecx
 8048e55:	b8 01 00 00 00       	mov    $0x1,%eax
 8048e5a:	8b 54 84 24          	mov    0x24(%esp,%eax,4),%edx
 8048e5e:	89 51 08             	mov    %edx,0x8(%ecx)
 8048e61:	83 c0 01             	add    $0x1,%eax
 8048e64:	89 d1                	mov    %edx,%ecx
 8048e66:	83 f8 06             	cmp    $0x6,%eax
 8048e69:	75 ef                	jne    8048e5a <phase_6+0x9a>
 8048e6b:	c7 42 08 00 00 00 00 	movl   $0x0,0x8(%edx)
 8048e72:	be 05 00 00 00       	mov    $0x5,%esi
 8048e77:	eb 08                	jmp    8048e81 <phase_6+0xc1>
 8048e79:	8b 5b 08             	mov    0x8(%ebx),%ebx
 8048e7c:	83 ee 01             	sub    $0x1,%esi
 8048e7f:	74 10                	je     8048e91 <phase_6+0xd1>
 8048e81:	8b 43 08             	mov    0x8(%ebx),%eax
 8048e84:	8b 00                	mov    (%eax),%eax
 8048e86:	39 03                	cmp    %eax,(%ebx)
 8048e88:	7e ef                	jle    8048e79 <phase_6+0xb9>
 8048e8a:	e8 56 02 00 00       	call   80490e5 <explode_bomb>
 8048e8f:	eb e8                	jmp    8048e79 <phase_6+0xb9>
 8048e91:	8b 44 24 3c          	mov    0x3c(%esp),%eax
 8048e95:	65 33 05 14 00 00 00 	xor    %gs:0x14,%eax
 8048e9c:	75 06                	jne    8048ea4 <phase_6+0xe4>
 8048e9e:	83 c4 44             	add    $0x44,%esp
 8048ea1:	5b                   	pop    %ebx
 8048ea2:	5e                   	pop    %esi
 8048ea3:	c3                   	ret    
 8048ea4:	e8 e7 f8 ff ff       	call   8048790 <__stack_chk_fail@plt>

08048ea9 <fun7>:
 8048ea9:	53                   	push   %ebx
 8048eaa:	83 ec 08             	sub    $0x8,%esp
 8048ead:	8b 54 24 10          	mov    0x10(%esp),%edx
 8048eb1:	8b 4c 24 14          	mov    0x14(%esp),%ecx
 8048eb5:	85 d2                	test   %edx,%edx
 8048eb7:	74 3a                	je     8048ef3 <fun7+0x4a>
 8048eb9:	8b 1a                	mov    (%edx),%ebx
 8048ebb:	39 cb                	cmp    %ecx,%ebx
 8048ebd:	7f 21                	jg     8048ee0 <fun7+0x37>
 8048ebf:	b8 00 00 00 00       	mov    $0x0,%eax
 8048ec4:	39 cb                	cmp    %ecx,%ebx
 8048ec6:	74 13                	je     8048edb <fun7+0x32>
 8048ec8:	83 ec 08             	sub    $0x8,%esp
 8048ecb:	51                   	push   %ecx
 8048ecc:	ff 72 08             	push   0x8(%edx)
 8048ecf:	e8 d5 ff ff ff       	call   8048ea9 <fun7>
 8048ed4:	83 c4 10             	add    $0x10,%esp
 8048ed7:	8d 44 00 01          	lea    0x1(%eax,%eax,1),%eax
 8048edb:	83 c4 08             	add    $0x8,%esp
 8048ede:	5b                   	pop    %ebx
 8048edf:	c3                   	ret    
 8048ee0:	83 ec 08             	sub    $0x8,%esp
 8048ee3:	51                   	push   %ecx
 8048ee4:	ff 72 04             	push   0x4(%edx)
 8048ee7:	e8 bd ff ff ff       	call   8048ea9 <fun7>
 8048eec:	83 c4 10             	add    $0x10,%esp
 8048eef:	01 c0                	add    %eax,%eax
 8048ef1:	eb e8                	jmp    8048edb <fun7+0x32>
 8048ef3:	b8 ff ff ff ff       	mov    $0xffffffff,%eax
 8048ef8:	eb e1                	jmp    8048edb <fun7+0x32>

08048efa <secret_phase>:
 8048efa:	53                   	push   %ebx
 8048efb:	83 ec 08             	sub    $0x8,%esp
 8048efe:	e8 42 02 00 00       	call   8049145 <read_line>
 8048f03:	83 ec 04             	sub    $0x4,%esp
 8048f06:	6a 0a                	push   $0xa
 8048f08:	6a 00                	push   $0x0
 8048f0a:	50                   	push   %eax
 8048f0b:	e8 70 f9 ff ff       	call   8048880 <strtol@plt>
 8048f10:	89 c3                	mov    %eax,%ebx
 8048f12:	8d 40 ff             	lea    -0x1(%eax),%eax
 8048f15:	83 c4 10             	add    $0x10,%esp
 8048f18:	3d e8 03 00 00       	cmp    $0x3e8,%eax
 8048f1d:	77 32                	ja     8048f51 <secret_phase+0x57>
 8048f1f:	83 ec 08             	sub    $0x8,%esp
 8048f22:	53                   	push   %ebx
 8048f23:	68 88 c0 04 08       	push   $0x804c088
 8048f28:	e8 7c ff ff ff       	call   8048ea9 <fun7>
 8048f2d:	83 c4 10             	add    $0x10,%esp
 8048f30:	83 f8 04             	cmp    $0x4,%eax
 8048f33:	74 05                	je     8048f3a <secret_phase+0x40>
 8048f35:	e8 ab 01 00 00       	call   80490e5 <explode_bomb>
 8048f3a:	83 ec 0c             	sub    $0xc,%esp
 8048f3d:	68 24 a0 04 08       	push   $0x804a024
 8048f42:	e8 79 f8 ff ff       	call   80487c0 <puts@plt>
 8048f47:	e8 f8 02 00 00       	call   8049244 <phase_defused>
 8048f4c:	83 c4 18             	add    $0x18,%esp
 8048f4f:	5b                   	pop    %ebx
 8048f50:	c3                   	ret    
 8048f51:	e8 8f 01 00 00       	call   80490e5 <explode_bomb>
 8048f56:	eb c7                	jmp    8048f1f <secret_phase+0x25>

08048f58 <sig_handler>:
 8048f58:	83 ec 18             	sub    $0x18,%esp
 8048f5b:	68 c0 a0 04 08       	push   $0x804a0c0
 8048f60:	e8 5b f8 ff ff       	call   80487c0 <puts@plt>
 8048f65:	c7 04 24 03 00 00 00 	movl   $0x3,(%esp)
 8048f6c:	e8 ff f7 ff ff       	call   8048770 <sleep@plt>
 8048f71:	83 c4 08             	add    $0x8,%esp
 8048f74:	68 82 a1 04 08       	push   $0x804a182
 8048f79:	6a 01                	push   $0x1
 8048f7b:	e8 c0 f8 ff ff       	call   8048840 <__printf_chk@plt>
 8048f80:	83 c4 04             	add    $0x4,%esp
 8048f83:	ff 35 c4 c3 04 08    	push   0x804c3c4
 8048f89:	e8 b2 f7 ff ff       	call   8048740 <fflush@plt>
 8048f8e:	c7 04 24 01 00 00 00 	movl   $0x1,(%esp)
 8048f95:	e8 d6 f7 ff ff       	call   8048770 <sleep@plt>
 8048f9a:	c7 04 24 8a a1 04 08 	movl   $0x804a18a,(%esp)
 8048fa1:	e8 1a f8 ff ff       	call   80487c0 <puts@plt>
 8048fa6:	c7 04 24 10 00 00 00 	movl   $0x10,(%esp)
 8048fad:	e8 2e f8 ff ff       	call   80487e0 <exit@plt>

08048fb2 <invalid_phase>:
 8048fb2:	83 ec 10             	sub    $0x10,%esp
 8048fb5:	ff 74 24 14          	push   0x14(%esp)
 8048fb9:	68 92 a1 04 08       	push   $0x804a192
 8048fbe:	6a 01                	push   $0x1
 8048fc0:	e8 7b f8 ff ff       	call   8048840 <__printf_chk@plt>
 8048fc5:	c7 04 24 08 00 00 00 	movl   $0x8,(%esp)
 8048fcc:	e8 0f f8 ff ff       	call   80487e0 <exit@plt>

08048fd1 <string_length>:
 8048fd1:	8b 54 24 04          	mov    0x4(%esp),%edx
 8048fd5:	80 3a 00             	cmpb   $0x0,(%edx)
 8048fd8:	74 10                	je     8048fea <string_length+0x19>
 8048fda:	b8 00 00 00 00       	mov    $0x0,%eax
 8048fdf:	83 c0 01             	add    $0x1,%eax
 8048fe2:	80 3c 02 00          	cmpb   $0x0,(%edx,%eax,1)
 8048fe6:	75 f7                	jne    8048fdf <string_length+0xe>
 8048fe8:	f3 c3                	repz ret 
 8048fea:	b8 00 00 00 00       	mov    $0x0,%eax
 8048fef:	c3                   	ret    

08048ff0 <strings_not_equal>:
 8048ff0:	57                   	push   %edi
 8048ff1:	56                   	push   %esi
 8048ff2:	53                   	push   %ebx
 8048ff3:	8b 5c 24 10          	mov    0x10(%esp),%ebx
 8048ff7:	8b 74 24 14          	mov    0x14(%esp),%esi
 8048ffb:	53                   	push   %ebx
 8048ffc:	e8 d0 ff ff ff       	call   8048fd1 <string_length>
 8049001:	89 c7                	mov    %eax,%edi
 8049003:	89 34 24             	mov    %esi,(%esp)
 8049006:	e8 c6 ff ff ff       	call   8048fd1 <string_length>
 804900b:	83 c4 04             	add    $0x4,%esp
 804900e:	ba 01 00 00 00       	mov    $0x1,%edx
 8049013:	39 c7                	cmp    %eax,%edi
 8049015:	74 06                	je     804901d <strings_not_equal+0x2d>
 8049017:	89 d0                	mov    %edx,%eax
 8049019:	5b                   	pop    %ebx
 804901a:	5e                   	pop    %esi
 804901b:	5f                   	pop    %edi
 804901c:	c3                   	ret    
 804901d:	0f b6 03             	movzbl (%ebx),%eax
 8049020:	84 c0                	test   %al,%al
 8049022:	74 23                	je     8049047 <strings_not_equal+0x57>
 8049024:	3a 06                	cmp    (%esi),%al
 8049026:	75 26                	jne    804904e <strings_not_equal+0x5e>
 8049028:	83 c3 01             	add    $0x1,%ebx
 804902b:	83 c6 01             	add    $0x1,%esi
 804902e:	0f b6 03             	movzbl (%ebx),%eax
 8049031:	84 c0                	test   %al,%al
 8049033:	74 0b                	je     8049040 <strings_not_equal+0x50>
 8049035:	3a 06                	cmp    (%esi),%al
 8049037:	74 ef                	je     8049028 <strings_not_equal+0x38>
 8049039:	ba 01 00 00 00       	mov    $0x1,%edx
 804903e:	eb d7                	jmp    8049017 <strings_not_equal+0x27>
 8049040:	ba 00 00 00 00       	mov    $0x0,%edx
 8049045:	eb d0                	jmp    8049017 <strings_not_equal+0x27>
 8049047:	ba 00 00 00 00       	mov    $0x0,%edx
 804904c:	eb c9                	jmp    8049017 <strings_not_equal+0x27>
 804904e:	ba 01 00 00 00       	mov    $0x1,%edx
 8049053:	eb c2                	jmp    8049017 <strings_not_equal+0x27>

08049055 <initialize_bomb>:
 8049055:	83 ec 14             	sub    $0x14,%esp
 8049058:	68 58 8f 04 08       	push   $0x8048f58
 804905d:	6a 02                	push   $0x2
 804905f:	e8 fc f6 ff ff       	call   8048760 <signal@plt>
 8049064:	83 c4 1c             	add    $0x1c,%esp
 8049067:	c3                   	ret    

08049068 <initialize_bomb_solve>:
 8049068:	f3 c3                	repz ret 

0804906a <blank_line>:
 804906a:	56                   	push   %esi
 804906b:	53                   	push   %ebx
 804906c:	83 ec 04             	sub    $0x4,%esp
 804906f:	8b 74 24 10          	mov    0x10(%esp),%esi
 8049073:	0f b6 1e             	movzbl (%esi),%ebx
 8049076:	84 db                	test   %bl,%bl
 8049078:	74 1b                	je     8049095 <blank_line+0x2b>
 804907a:	e8 31 f8 ff ff       	call   80488b0 <__ctype_b_loc@plt>
 804907f:	83 c6 01             	add    $0x1,%esi
 8049082:	0f be db             	movsbl %bl,%ebx
 8049085:	8b 00                	mov    (%eax),%eax
 8049087:	f6 44 58 01 20       	testb  $0x20,0x1(%eax,%ebx,2)
 804908c:	75 e5                	jne    8049073 <blank_line+0x9>
 804908e:	b8 00 00 00 00       	mov    $0x0,%eax
 8049093:	eb 05                	jmp    804909a <blank_line+0x30>
 8049095:	b8 01 00 00 00       	mov    $0x1,%eax
 804909a:	83 c4 04             	add    $0x4,%esp
 804909d:	5b                   	pop    %ebx
 804909e:	5e                   	pop    %esi
 804909f:	c3                   	ret    

080490a0 <skip>:
 80490a0:	53                   	push   %ebx
 80490a1:	83 ec 08             	sub    $0x8,%esp
 80490a4:	83 ec 04             	sub    $0x4,%esp
 80490a7:	ff 35 d0 c3 04 08    	push   0x804c3d0
 80490ad:	6a 50                	push   $0x50
 80490af:	a1 cc c3 04 08       	mov    0x804c3cc,%eax
 80490b4:	8d 04 80             	lea    (%eax,%eax,4),%eax
 80490b7:	c1 e0 04             	shl    $0x4,%eax
 80490ba:	05 e0 c3 04 08       	add    $0x804c3e0,%eax
 80490bf:	50                   	push   %eax
 80490c0:	e8 8b f6 ff ff       	call   8048750 <fgets@plt>
 80490c5:	89 c3                	mov    %eax,%ebx
 80490c7:	83 c4 10             	add    $0x10,%esp
 80490ca:	85 c0                	test   %eax,%eax
 80490cc:	74 10                	je     80490de <skip+0x3e>
 80490ce:	83 ec 0c             	sub    $0xc,%esp
 80490d1:	50                   	push   %eax
 80490d2:	e8 93 ff ff ff       	call   804906a <blank_line>
 80490d7:	83 c4 10             	add    $0x10,%esp
 80490da:	85 c0                	test   %eax,%eax
 80490dc:	75 c6                	jne    80490a4 <skip+0x4>
 80490de:	89 d8                	mov    %ebx,%eax
 80490e0:	83 c4 08             	add    $0x8,%esp
 80490e3:	5b                   	pop    %ebx
 80490e4:	c3                   	ret    

080490e5 <explode_bomb>:
 80490e5:	83 ec 18             	sub    $0x18,%esp
 80490e8:	68 a3 a1 04 08       	push   $0x804a1a3
 80490ed:	e8 ce f6 ff ff       	call   80487c0 <puts@plt>
 80490f2:	c7 04 24 ac a1 04 08 	movl   $0x804a1ac,(%esp)
 80490f9:	e8 c2 f6 ff ff       	call   80487c0 <puts@plt>
 80490fe:	c7 04 24 08 00 00 00 	movl   $0x8,(%esp)
 8049105:	e8 d6 f6 ff ff       	call   80487e0 <exit@plt>

0804910a <read_six_numbers>:
 804910a:	83 ec 0c             	sub    $0xc,%esp
 804910d:	8b 44 24 14          	mov    0x14(%esp),%eax
 8049111:	8d 50 14             	lea    0x14(%eax),%edx
 8049114:	52                   	push   %edx
 8049115:	8d 50 10             	lea    0x10(%eax),%edx
 8049118:	52                   	push   %edx
 8049119:	8d 50 0c             	lea    0xc(%eax),%edx
 804911c:	52                   	push   %edx
 804911d:	8d 50 08             	lea    0x8(%eax),%edx
 8049120:	52                   	push   %edx
 8049121:	8d 50 04             	lea    0x4(%eax),%edx
 8049124:	52                   	push   %edx
 8049125:	50                   	push   %eax
 8049126:	68 c3 a1 04 08       	push   $0x804a1c3
 804912b:	ff 74 24 2c          	push   0x2c(%esp)
 804912f:	e8 dc f6 ff ff       	call   8048810 <__isoc99_sscanf@plt>
 8049134:	83 c4 20             	add    $0x20,%esp
 8049137:	83 f8 05             	cmp    $0x5,%eax
 804913a:	7e 04                	jle    8049140 <read_six_numbers+0x36>
 804913c:	83 c4 0c             	add    $0xc,%esp
 804913f:	c3                   	ret    
 8049140:	e8 a0 ff ff ff       	call   80490e5 <explode_bomb>

08049145 <read_line>:
 8049145:	57                   	push   %edi
 8049146:	56                   	push   %esi
 8049147:	53                   	push   %ebx
 8049148:	e8 53 ff ff ff       	call   80490a0 <skip>
 804914d:	85 c0                	test   %eax,%eax
 804914f:	74 4b                	je     804919c <read_line+0x57>
 8049151:	8b 15 cc c3 04 08    	mov    0x804c3cc,%edx
 8049157:	8d 1c 92             	lea    (%edx,%edx,4),%ebx
 804915a:	c1 e3 04             	shl    $0x4,%ebx
 804915d:	81 c3 e0 c3 04 08    	add    $0x804c3e0,%ebx
 8049163:	b8 00 00 00 00       	mov    $0x0,%eax
 8049168:	b9 ff ff ff ff       	mov    $0xffffffff,%ecx
 804916d:	89 df                	mov    %ebx,%edi
 804916f:	f2 ae                	repnz scas %es:(%edi),%al
 8049171:	f7 d1                	not    %ecx
 8049173:	83 e9 01             	sub    $0x1,%ecx
 8049176:	83 f9 4e             	cmp    $0x4e,%ecx
 8049179:	0f 8f 8d 00 00 00    	jg     804920c <read_line+0xc7>
 804917f:	8d 04 92             	lea    (%edx,%edx,4),%eax
 8049182:	c1 e0 04             	shl    $0x4,%eax
 8049185:	c6 84 01 df c3 04 08 	movb   $0x0,0x804c3df(%ecx,%eax,1)
 804918c:	00 
 804918d:	83 c2 01             	add    $0x1,%edx
 8049190:	89 15 cc c3 04 08    	mov    %edx,0x804c3cc
 8049196:	89 d8                	mov    %ebx,%eax
 8049198:	5b                   	pop    %ebx
 8049199:	5e                   	pop    %esi
 804919a:	5f                   	pop    %edi
 804919b:	c3                   	ret    
 804919c:	a1 c0 c3 04 08       	mov    0x804c3c0,%eax
 80491a1:	39 05 d0 c3 04 08    	cmp    %eax,0x804c3d0
 80491a7:	74 40                	je     80491e9 <read_line+0xa4>
 80491a9:	83 ec 0c             	sub    $0xc,%esp
 80491ac:	68 f3 a1 04 08       	push   $0x804a1f3
 80491b1:	e8 fa f5 ff ff       	call   80487b0 <getenv@plt>
 80491b6:	83 c4 10             	add    $0x10,%esp
 80491b9:	85 c0                	test   %eax,%eax
 80491bb:	75 45                	jne    8049202 <read_line+0xbd>
 80491bd:	a1 c0 c3 04 08       	mov    0x804c3c0,%eax
 80491c2:	a3 d0 c3 04 08       	mov    %eax,0x804c3d0
 80491c7:	e8 d4 fe ff ff       	call   80490a0 <skip>
 80491cc:	85 c0                	test   %eax,%eax
 80491ce:	75 81                	jne    8049151 <read_line+0xc>
 80491d0:	83 ec 0c             	sub    $0xc,%esp
 80491d3:	68 d5 a1 04 08       	push   $0x804a1d5
 80491d8:	e8 e3 f5 ff ff       	call   80487c0 <puts@plt>
 80491dd:	c7 04 24 00 00 00 00 	movl   $0x0,(%esp)
 80491e4:	e8 f7 f5 ff ff       	call   80487e0 <exit@plt>
 80491e9:	83 ec 0c             	sub    $0xc,%esp
 80491ec:	68 d5 a1 04 08       	push   $0x804a1d5
 80491f1:	e8 ca f5 ff ff       	call   80487c0 <puts@plt>
 80491f6:	c7 04 24 08 00 00 00 	movl   $0x8,(%esp)
 80491fd:	e8 de f5 ff ff       	call   80487e0 <exit@plt>
 8049202:	83 ec 0c             	sub    $0xc,%esp
 8049205:	6a 00                	push   $0x0
 8049207:	e8 d4 f5 ff ff       	call   80487e0 <exit@plt>
 804920c:	83 ec 0c             	sub    $0xc,%esp
 804920f:	68 fe a1 04 08       	push   $0x804a1fe
 8049214:	e8 a7 f5 ff ff       	call   80487c0 <puts@plt>
 8049219:	a1 cc c3 04 08       	mov    0x804c3cc,%eax
 804921e:	8d 50 01             	lea    0x1(%eax),%edx
 8049221:	89 15 cc c3 04 08    	mov    %edx,0x804c3cc
 8049227:	6b c0 50             	imul   $0x50,%eax,%eax
 804922a:	05 e0 c3 04 08       	add    $0x804c3e0,%eax
 804922f:	ba 19 a2 04 08       	mov    $0x804a219,%edx
 8049234:	b9 04 00 00 00       	mov    $0x4,%ecx
 8049239:	89 c7                	mov    %eax,%edi
 804923b:	89 d6                	mov    %edx,%esi
 804923d:	f3 a5                	rep movsl %ds:(%esi),%es:(%edi)
 804923f:	e8 a1 fe ff ff       	call   80490e5 <explode_bomb>

08049244 <phase_defused>:
 8049244:	83 ec 6c             	sub    $0x6c,%esp
 8049247:	65 a1 14 00 00 00    	mov    %gs:0x14,%eax
 804924d:	89 44 24 5c          	mov    %eax,0x5c(%esp)
 8049251:	31 c0                	xor    %eax,%eax
 8049253:	83 3d cc c3 04 08 06 	cmpl   $0x6,0x804c3cc
 804925a:	74 11                	je     804926d <phase_defused+0x29>
 804925c:	8b 44 24 5c          	mov    0x5c(%esp),%eax
 8049260:	65 33 05 14 00 00 00 	xor    %gs:0x14,%eax
 8049267:	75 7b                	jne    80492e4 <phase_defused+0xa0>
 8049269:	83 c4 6c             	add    $0x6c,%esp
 804926c:	c3                   	ret    
 804926d:	83 ec 0c             	sub    $0xc,%esp
 8049270:	8d 44 24 18          	lea    0x18(%esp),%eax
 8049274:	50                   	push   %eax
 8049275:	8d 44 24 18          	lea    0x18(%esp),%eax
 8049279:	50                   	push   %eax
 804927a:	8d 44 24 18          	lea    0x18(%esp),%eax
 804927e:	50                   	push   %eax
 804927f:	68 29 a2 04 08       	push   $0x804a229
 8049284:	68 d0 c4 04 08       	push   $0x804c4d0
 8049289:	e8 82 f5 ff ff       	call   8048810 <__isoc99_sscanf@plt>
 804928e:	83 c4 20             	add    $0x20,%esp
 8049291:	83 f8 03             	cmp    $0x3,%eax
 8049294:	74 12                	je     80492a8 <phase_defused+0x64>
 8049296:	83 ec 0c             	sub    $0xc,%esp
 8049299:	68 58 a1 04 08       	push   $0x804a158
 804929e:	e8 1d f5 ff ff       	call   80487c0 <puts@plt>
 80492a3:	83 c4 10             	add    $0x10,%esp
 80492a6:	eb b4                	jmp    804925c <phase_defused+0x18>
 80492a8:	83 ec 08             	sub    $0x8,%esp
 80492ab:	68 32 a2 04 08       	push   $0x804a232
 80492b0:	8d 44 24 18          	lea    0x18(%esp),%eax
 80492b4:	50                   	push   %eax
 80492b5:	e8 36 fd ff ff       	call   8048ff0 <strings_not_equal>
 80492ba:	83 c4 10             	add    $0x10,%esp
 80492bd:	85 c0                	test   %eax,%eax
 80492bf:	75 d5                	jne    8049296 <phase_defused+0x52>
 80492c1:	83 ec 0c             	sub    $0xc,%esp
 80492c4:	68 f8 a0 04 08       	push   $0x804a0f8
 80492c9:	e8 f2 f4 ff ff       	call   80487c0 <puts@plt>
 80492ce:	c7 04 24 20 a1 04 08 	movl   $0x804a120,(%esp)
 80492d5:	e8 e6 f4 ff ff       	call   80487c0 <puts@plt>
 80492da:	e8 1b fc ff ff       	call   8048efa <secret_phase>
 80492df:	83 c4 10             	add    $0x10,%esp
 80492e2:	eb b2                	jmp    8049296 <phase_defused+0x52>
 80492e4:	e8 a7 f4 ff ff       	call   8048790 <__stack_chk_fail@plt>

080492e9 <sigalrm_handler>:
 80492e9:	83 ec 0c             	sub    $0xc,%esp
 80492ec:	6a 00                	push   $0x0
 80492ee:	68 88 a2 04 08       	push   $0x804a288
 80492f3:	6a 01                	push   $0x1
 80492f5:	ff 35 a0 c3 04 08    	push   0x804c3a0
 80492fb:	e8 60 f5 ff ff       	call   8048860 <__fprintf_chk@plt>
 8049300:	c7 04 24 01 00 00 00 	movl   $0x1,(%esp)
 8049307:	e8 d4 f4 ff ff       	call   80487e0 <exit@plt>

0804930c <rio_readlineb>:
 804930c:	55                   	push   %ebp
 804930d:	57                   	push   %edi
 804930e:	56                   	push   %esi
 804930f:	53                   	push   %ebx
 8049310:	83 ec 1c             	sub    $0x1c,%esp
 8049313:	83 f9 01             	cmp    $0x1,%ecx
 8049316:	76 79                	jbe    8049391 <rio_readlineb+0x85>
 8049318:	89 d7                	mov    %edx,%edi
 804931a:	89 c3                	mov    %eax,%ebx
 804931c:	89 4c 24 0c          	mov    %ecx,0xc(%esp)
 8049320:	bd 01 00 00 00       	mov    $0x1,%ebp
 8049325:	8d 70 0c             	lea    0xc(%eax),%esi
 8049328:	eb 0a                	jmp    8049334 <rio_readlineb+0x28>
 804932a:	e8 01 f5 ff ff       	call   8048830 <__errno_location@plt>
 804932f:	83 38 04             	cmpl   $0x4,(%eax)
 8049332:	75 66                	jne    804939a <rio_readlineb+0x8e>
 8049334:	8b 43 04             	mov    0x4(%ebx),%eax
 8049337:	85 c0                	test   %eax,%eax
 8049339:	7f 23                	jg     804935e <rio_readlineb+0x52>
 804933b:	83 ec 04             	sub    $0x4,%esp
 804933e:	68 00 20 00 00       	push   $0x2000
 8049343:	56                   	push   %esi
 8049344:	ff 33                	push   (%ebx)
 8049346:	e8 e5 f3 ff ff       	call   8048730 <read@plt>
 804934b:	89 43 04             	mov    %eax,0x4(%ebx)
 804934e:	83 c4 10             	add    $0x10,%esp
 8049351:	85 c0                	test   %eax,%eax
 8049353:	78 d5                	js     804932a <rio_readlineb+0x1e>
 8049355:	85 c0                	test   %eax,%eax
 8049357:	74 48                	je     80493a1 <rio_readlineb+0x95>
 8049359:	89 73 08             	mov    %esi,0x8(%ebx)
 804935c:	eb d6                	jmp    8049334 <rio_readlineb+0x28>
 804935e:	8b 4b 08             	mov    0x8(%ebx),%ecx
 8049361:	0f b6 11             	movzbl (%ecx),%edx
 8049364:	83 c1 01             	add    $0x1,%ecx
 8049367:	89 4b 08             	mov    %ecx,0x8(%ebx)
 804936a:	83 e8 01             	sub    $0x1,%eax
 804936d:	89 43 04             	mov    %eax,0x4(%ebx)
 8049370:	83 c7 01             	add    $0x1,%edi
 8049373:	88 57 ff             	mov    %dl,-0x1(%edi)
 8049376:	80 fa 0a             	cmp    $0xa,%dl
 8049379:	74 09                	je     8049384 <rio_readlineb+0x78>
 804937b:	83 c5 01             	add    $0x1,%ebp
 804937e:	3b 6c 24 0c          	cmp    0xc(%esp),%ebp
 8049382:	75 b0                	jne    8049334 <rio_readlineb+0x28>
 8049384:	c6 07 00             	movb   $0x0,(%edi)
 8049387:	89 e8                	mov    %ebp,%eax
 8049389:	83 c4 1c             	add    $0x1c,%esp
 804938c:	5b                   	pop    %ebx
 804938d:	5e                   	pop    %esi
 804938e:	5f                   	pop    %edi
 804938f:	5d                   	pop    %ebp
 8049390:	c3                   	ret    
 8049391:	89 d7                	mov    %edx,%edi
 8049393:	bd 01 00 00 00       	mov    $0x1,%ebp
 8049398:	eb ea                	jmp    8049384 <rio_readlineb+0x78>
 804939a:	b8 ff ff ff ff       	mov    $0xffffffff,%eax
 804939f:	eb 05                	jmp    80493a6 <rio_readlineb+0x9a>
 80493a1:	b8 00 00 00 00       	mov    $0x0,%eax
 80493a6:	85 c0                	test   %eax,%eax
 80493a8:	75 0c                	jne    80493b6 <rio_readlineb+0xaa>
 80493aa:	83 fd 01             	cmp    $0x1,%ebp
 80493ad:	75 d5                	jne    8049384 <rio_readlineb+0x78>
 80493af:	bd 00 00 00 00       	mov    $0x0,%ebp
 80493b4:	eb d1                	jmp    8049387 <rio_readlineb+0x7b>
 80493b6:	bd ff ff ff ff       	mov    $0xffffffff,%ebp
 80493bb:	eb ca                	jmp    8049387 <rio_readlineb+0x7b>

080493bd <submitr>:
 80493bd:	55                   	push   %ebp
 80493be:	57                   	push   %edi
 80493bf:	56                   	push   %esi
 80493c0:	53                   	push   %ebx
 80493c1:	81 ec 60 a0 00 00    	sub    $0xa060,%esp
 80493c7:	8b 9c 24 74 a0 00 00 	mov    0xa074(%esp),%ebx
 80493ce:	8b 84 24 7c a0 00 00 	mov    0xa07c(%esp),%eax
 80493d5:	89 44 24 0c          	mov    %eax,0xc(%esp)
 80493d9:	8b 84 24 80 a0 00 00 	mov    0xa080(%esp),%eax
 80493e0:	89 44 24 10          	mov    %eax,0x10(%esp)
 80493e4:	8b 84 24 84 a0 00 00 	mov    0xa084(%esp),%eax
 80493eb:	89 44 24 14          	mov    %eax,0x14(%esp)
 80493ef:	8b b4 24 88 a0 00 00 	mov    0xa088(%esp),%esi
 80493f6:	8b 84 24 8c a0 00 00 	mov    0xa08c(%esp),%eax
 80493fd:	89 44 24 18          	mov    %eax,0x18(%esp)
 8049401:	65 a1 14 00 00 00    	mov    %gs:0x14,%eax
 8049407:	89 84 24 50 a0 00 00 	mov    %eax,0xa050(%esp)
 804940e:	31 c0                	xor    %eax,%eax
 8049410:	c7 44 24 30 00 00 00 	movl   $0x0,0x30(%esp)
 8049417:	00 
 8049418:	6a 00                	push   $0x0
 804941a:	6a 01                	push   $0x1
 804941c:	6a 02                	push   $0x2
 804941e:	e8 2d f4 ff ff       	call   8048850 <socket@plt>
 8049423:	83 c4 10             	add    $0x10,%esp
 8049426:	85 c0                	test   %eax,%eax
 8049428:	0f 88 04 01 00 00    	js     8049532 <submitr+0x175>
 804942e:	89 c5                	mov    %eax,%ebp
 8049430:	83 ec 0c             	sub    $0xc,%esp
 8049433:	53                   	push   %ebx
 8049434:	e8 37 f4 ff ff       	call   8048870 <gethostbyname@plt>
 8049439:	83 c4 10             	add    $0x10,%esp
 804943c:	85 c0                	test   %eax,%eax
 804943e:	0f 84 40 01 00 00    	je     8049584 <submitr+0x1c7>
 8049444:	8d 5c 24 30          	lea    0x30(%esp),%ebx
 8049448:	c7 44 24 30 00 00 00 	movl   $0x0,0x30(%esp)
 804944f:	00 
 8049450:	c7 44 24 34 00 00 00 	movl   $0x0,0x34(%esp)
 8049457:	00 
 8049458:	c7 44 24 38 00 00 00 	movl   $0x0,0x38(%esp)
 804945f:	00 
 8049460:	c7 44 24 3c 00 00 00 	movl   $0x0,0x3c(%esp)
 8049467:	00 
 8049468:	66 c7 44 24 30 02 00 	movw   $0x2,0x30(%esp)
 804946f:	6a 0c                	push   $0xc
 8049471:	ff 70 0c             	push   0xc(%eax)
 8049474:	8b 40 10             	mov    0x10(%eax),%eax
 8049477:	ff 30                	push   (%eax)
 8049479:	8d 44 24 40          	lea    0x40(%esp),%eax
 804947d:	50                   	push   %eax
 804947e:	e8 4d f3 ff ff       	call   80487d0 <__memmove_chk@plt>
 8049483:	0f b7 84 24 84 a0 00 	movzwl 0xa084(%esp),%eax
 804948a:	00 
 804948b:	66 c1 c8 08          	ror    $0x8,%ax
 804948f:	66 89 44 24 42       	mov    %ax,0x42(%esp)
 8049494:	83 c4 0c             	add    $0xc,%esp
 8049497:	6a 10                	push   $0x10
 8049499:	53                   	push   %ebx
 804949a:	55                   	push   %ebp
 804949b:	e8 f0 f3 ff ff       	call   8048890 <connect@plt>
 80494a0:	83 c4 10             	add    $0x10,%esp
 80494a3:	85 c0                	test   %eax,%eax
 80494a5:	0f 88 49 01 00 00    	js     80495f4 <submitr+0x237>
 80494ab:	ba ff ff ff ff       	mov    $0xffffffff,%edx
 80494b0:	b8 00 00 00 00       	mov    $0x0,%eax
 80494b5:	89 d1                	mov    %edx,%ecx
 80494b7:	89 f7                	mov    %esi,%edi
 80494b9:	f2 ae                	repnz scas %es:(%edi),%al
 80494bb:	89 cb                	mov    %ecx,%ebx
 80494bd:	f7 d3                	not    %ebx
 80494bf:	89 d1                	mov    %edx,%ecx
 80494c1:	8b 7c 24 08          	mov    0x8(%esp),%edi
 80494c5:	f2 ae                	repnz scas %es:(%edi),%al
 80494c7:	89 4c 24 18          	mov    %ecx,0x18(%esp)
 80494cb:	89 d1                	mov    %edx,%ecx
 80494cd:	8b 7c 24 0c          	mov    0xc(%esp),%edi
 80494d1:	f2 ae                	repnz scas %es:(%edi),%al
 80494d3:	89 cf                	mov    %ecx,%edi
 80494d5:	f7 d7                	not    %edi
 80494d7:	89 7c 24 1c          	mov    %edi,0x1c(%esp)
 80494db:	89 d1                	mov    %edx,%ecx
 80494dd:	8b 7c 24 10          	mov    0x10(%esp),%edi
 80494e1:	f2 ae                	repnz scas %es:(%edi),%al
 80494e3:	8b 54 24 1c          	mov    0x1c(%esp),%edx
 80494e7:	2b 54 24 18          	sub    0x18(%esp),%edx
 80494eb:	29 ca                	sub    %ecx,%edx
 80494ed:	8d 44 5b fd          	lea    -0x3(%ebx,%ebx,2),%eax
 80494f1:	8d 44 02 7b          	lea    0x7b(%edx,%eax,1),%eax
 80494f5:	3d 00 20 00 00       	cmp    $0x2000,%eax
 80494fa:	0f 87 56 01 00 00    	ja     8049656 <submitr+0x299>
 8049500:	8d 94 24 4c 40 00 00 	lea    0x404c(%esp),%edx
 8049507:	b9 00 08 00 00       	mov    $0x800,%ecx
 804950c:	b8 00 00 00 00       	mov    $0x0,%eax
 8049511:	89 d7                	mov    %edx,%edi
 8049513:	f3 ab                	rep stos %eax,%es:(%edi)
 8049515:	b9 ff ff ff ff       	mov    $0xffffffff,%ecx
 804951a:	89 f7                	mov    %esi,%edi
 804951c:	f2 ae                	repnz scas %es:(%edi),%al
 804951e:	f7 d1                	not    %ecx
 8049520:	89 cb                	mov    %ecx,%ebx
 8049522:	83 eb 01             	sub    $0x1,%ebx
 8049525:	0f 84 07 06 00 00    	je     8049b32 <submitr+0x775>
 804952b:	89 d7                	mov    %edx,%edi
 804952d:	e9 b0 01 00 00       	jmp    80496e2 <submitr+0x325>
 8049532:	8b 44 24 14          	mov    0x14(%esp),%eax
 8049536:	c7 00 45 72 72 6f    	movl   $0x6f727245,(%eax)
 804953c:	c7 40 04 72 3a 20 43 	movl   $0x43203a72,0x4(%eax)
 8049543:	c7 40 08 6c 69 65 6e 	movl   $0x6e65696c,0x8(%eax)
 804954a:	c7 40 0c 74 20 75 6e 	movl   $0x6e752074,0xc(%eax)
 8049551:	c7 40 10 61 62 6c 65 	movl   $0x656c6261,0x10(%eax)
 8049558:	c7 40 14 20 74 6f 20 	movl   $0x206f7420,0x14(%eax)
 804955f:	c7 40 18 63 72 65 61 	movl   $0x61657263,0x18(%eax)
 8049566:	c7 40 1c 74 65 20 73 	movl   $0x73206574,0x1c(%eax)
 804956d:	c7 40 20 6f 63 6b 65 	movl   $0x656b636f,0x20(%eax)
 8049574:	66 c7 40 24 74 00    	movw   $0x74,0x24(%eax)
 804957a:	b8 ff ff ff ff       	mov    $0xffffffff,%eax
 804957f:	e9 d0 04 00 00       	jmp    8049a54 <submitr+0x697>
 8049584:	8b 44 24 14          	mov    0x14(%esp),%eax
 8049588:	c7 00 45 72 72 6f    	movl   $0x6f727245,(%eax)
 804958e:	c7 40 04 72 3a 20 44 	movl   $0x44203a72,0x4(%eax)
 8049595:	c7 40 08 4e 53 20 69 	movl   $0x6920534e,0x8(%eax)
 804959c:	c7 40 0c 73 20 75 6e 	movl   $0x6e752073,0xc(%eax)
 80495a3:	c7 40 10 61 62 6c 65 	movl   $0x656c6261,0x10(%eax)
 80495aa:	c7 40 14 20 74 6f 20 	movl   $0x206f7420,0x14(%eax)
 80495b1:	c7 40 18 72 65 73 6f 	movl   $0x6f736572,0x18(%eax)
 80495b8:	c7 40 1c 6c 76 65 20 	movl   $0x2065766c,0x1c(%eax)
 80495bf:	c7 40 20 73 65 72 76 	movl   $0x76726573,0x20(%eax)
 80495c6:	c7 40 24 65 72 20 61 	movl   $0x61207265,0x24(%eax)
 80495cd:	c7 40 28 64 64 72 65 	movl   $0x65726464,0x28(%eax)
 80495d4:	66 c7 40 2c 73 73    	movw   $0x7373,0x2c(%eax)
 80495da:	c6 40 2e 00          	movb   $0x0,0x2e(%eax)
 80495de:	83 ec 0c             	sub    $0xc,%esp
 80495e1:	55                   	push   %ebp
 80495e2:	e8 b9 f2 ff ff       	call   80488a0 <close@plt>
 80495e7:	83 c4 10             	add    $0x10,%esp
 80495ea:	b8 ff ff ff ff       	mov    $0xffffffff,%eax
 80495ef:	e9 60 04 00 00       	jmp    8049a54 <submitr+0x697>
 80495f4:	8b 44 24 14          	mov    0x14(%esp),%eax
 80495f8:	c7 00 45 72 72 6f    	movl   $0x6f727245,(%eax)
 80495fe:	c7 40 04 72 3a 20 55 	movl   $0x55203a72,0x4(%eax)
 8049605:	c7 40 08 6e 61 62 6c 	movl   $0x6c62616e,0x8(%eax)
 804960c:	c7 40 0c 65 20 74 6f 	movl   $0x6f742065,0xc(%eax)
 8049613:	c7 40 10 20 63 6f 6e 	movl   $0x6e6f6320,0x10(%eax)
 804961a:	c7 40 14 6e 65 63 74 	movl   $0x7463656e,0x14(%eax)
 8049621:	c7 40 18 20 74 6f 20 	movl   $0x206f7420,0x18(%eax)
 8049628:	c7 40 1c 74 68 65 20 	movl   $0x20656874,0x1c(%eax)
 804962f:	c7 40 20 73 65 72 76 	movl   $0x76726573,0x20(%eax)
 8049636:	66 c7 40 24 65 72    	movw   $0x7265,0x24(%eax)
 804963c:	c6 40 26 00          	movb   $0x0,0x26(%eax)
 8049640:	83 ec 0c             	sub    $0xc,%esp
 8049643:	55                   	push   %ebp
 8049644:	e8 57 f2 ff ff       	call   80488a0 <close@plt>
 8049649:	83 c4 10             	add    $0x10,%esp
 804964c:	b8 ff ff ff ff       	mov    $0xffffffff,%eax
 8049651:	e9 fe 03 00 00       	jmp    8049a54 <submitr+0x697>
 8049656:	8b 44 24 14          	mov    0x14(%esp),%eax
 804965a:	c7 00 45 72 72 6f    	movl   $0x6f727245,(%eax)
 8049660:	c7 40 04 72 3a 20 52 	movl   $0x52203a72,0x4(%eax)
 8049667:	c7 40 08 65 73 75 6c 	movl   $0x6c757365,0x8(%eax)
 804966e:	c7 40 0c 74 20 73 74 	movl   $0x74732074,0xc(%eax)
 8049675:	c7 40 10 72 69 6e 67 	movl   $0x676e6972,0x10(%eax)
 804967c:	c7 40 14 20 74 6f 6f 	movl   $0x6f6f7420,0x14(%eax)
 8049683:	c7 40 18 20 6c 61 72 	movl   $0x72616c20,0x18(%eax)
 804968a:	c7 40 1c 67 65 2e 20 	movl   $0x202e6567,0x1c(%eax)
 8049691:	c7 40 20 49 6e 63 72 	movl   $0x72636e49,0x20(%eax)
 8049698:	c7 40 24 65 61 73 65 	movl   $0x65736165,0x24(%eax)
 804969f:	c7 40 28 20 53 55 42 	movl   $0x42555320,0x28(%eax)
 80496a6:	c7 40 2c 4d 49 54 52 	movl   $0x5254494d,0x2c(%eax)
 80496ad:	c7 40 30 5f 4d 41 58 	movl   $0x58414d5f,0x30(%eax)
 80496b4:	c7 40 34 42 55 46 00 	movl   $0x465542,0x34(%eax)
 80496bb:	83 ec 0c             	sub    $0xc,%esp
 80496be:	55                   	push   %ebp
 80496bf:	e8 dc f1 ff ff       	call   80488a0 <close@plt>
 80496c4:	83 c4 10             	add    $0x10,%esp
 80496c7:	b8 ff ff ff ff       	mov    $0xffffffff,%eax
 80496cc:	e9 83 03 00 00       	jmp    8049a54 <submitr+0x697>
 80496d1:	88 17                	mov    %dl,(%edi)
 80496d3:	8d 7f 01             	lea    0x1(%edi),%edi
 80496d6:	83 c6 01             	add    $0x1,%esi
 80496d9:	83 eb 01             	sub    $0x1,%ebx
 80496dc:	0f 84 50 04 00 00    	je     8049b32 <submitr+0x775>
 80496e2:	0f b6 16             	movzbl (%esi),%edx
 80496e5:	8d 4a d6             	lea    -0x2a(%edx),%ecx
 80496e8:	b8 01 00 00 00       	mov    $0x1,%eax
 80496ed:	80 f9 0f             	cmp    $0xf,%cl
 80496f0:	77 0d                	ja     80496ff <submitr+0x342>
 80496f2:	b8 d9 ff 00 00       	mov    $0xffd9,%eax
 80496f7:	d3 e8                	shr    %cl,%eax
 80496f9:	83 f0 01             	xor    $0x1,%eax
 80496fc:	83 e0 01             	and    $0x1,%eax
 80496ff:	80 fa 5f             	cmp    $0x5f,%dl
 8049702:	74 cd                	je     80496d1 <submitr+0x314>
 8049704:	84 c0                	test   %al,%al
 8049706:	74 c9                	je     80496d1 <submitr+0x314>
 8049708:	89 d0                	mov    %edx,%eax
 804970a:	83 e0 df             	and    $0xffffffdf,%eax
 804970d:	83 e8 41             	sub    $0x41,%eax
 8049710:	3c 19                	cmp    $0x19,%al
 8049712:	76 bd                	jbe    80496d1 <submitr+0x314>
 8049714:	80 fa 20             	cmp    $0x20,%dl
 8049717:	74 58                	je     8049771 <submitr+0x3b4>
 8049719:	8d 42 e0             	lea    -0x20(%edx),%eax
 804971c:	3c 5f                	cmp    $0x5f,%al
 804971e:	76 09                	jbe    8049729 <submitr+0x36c>
 8049720:	80 fa 09             	cmp    $0x9,%dl
 8049723:	0f 85 c5 03 00 00    	jne    8049aee <submitr+0x731>
 8049729:	83 ec 0c             	sub    $0xc,%esp
 804972c:	0f b6 d2             	movzbl %dl,%edx
 804972f:	52                   	push   %edx
 8049730:	68 94 a3 04 08       	push   $0x804a394
 8049735:	6a 08                	push   $0x8
 8049737:	6a 01                	push   $0x1
 8049739:	8d 84 24 68 80 00 00 	lea    0x8068(%esp),%eax
 8049740:	50                   	push   %eax
 8049741:	e8 7a f1 ff ff       	call   80488c0 <__sprintf_chk@plt>
 8049746:	0f b6 84 24 6c 80 00 	movzbl 0x806c(%esp),%eax
 804974d:	00 
 804974e:	88 07                	mov    %al,(%edi)
 8049750:	0f b6 84 24 6d 80 00 	movzbl 0x806d(%esp),%eax
 8049757:	00 
 8049758:	88 47 01             	mov    %al,0x1(%edi)
 804975b:	0f b6 84 24 6e 80 00 	movzbl 0x806e(%esp),%eax
 8049762:	00 
 8049763:	88 47 02             	mov    %al,0x2(%edi)
 8049766:	83 c4 20             	add    $0x20,%esp
 8049769:	8d 7f 03             	lea    0x3(%edi),%edi
 804976c:	e9 65 ff ff ff       	jmp    80496d6 <submitr+0x319>
 8049771:	c6 07 2b             	movb   $0x2b,(%edi)
 8049774:	8d 7f 01             	lea    0x1(%edi),%edi
 8049777:	e9 5a ff ff ff       	jmp    80496d6 <submitr+0x319>
 804977c:	01 c6                	add    %eax,%esi
 804977e:	29 c3                	sub    %eax,%ebx
 8049780:	74 24                	je     80497a6 <submitr+0x3e9>
 8049782:	83 ec 04             	sub    $0x4,%esp
 8049785:	53                   	push   %ebx
 8049786:	56                   	push   %esi
 8049787:	55                   	push   %ebp
 8049788:	e8 73 f0 ff ff       	call   8048800 <write@plt>
 804978d:	83 c4 10             	add    $0x10,%esp
 8049790:	85 c0                	test   %eax,%eax
 8049792:	7f e8                	jg     804977c <submitr+0x3bf>
 8049794:	e8 97 f0 ff ff       	call   8048830 <__errno_location@plt>
 8049799:	83 38 04             	cmpl   $0x4,(%eax)
 804979c:	0f 85 b0 00 00 00    	jne    8049852 <submitr+0x495>
 80497a2:	89 f8                	mov    %edi,%eax
 80497a4:	eb d6                	jmp    804977c <submitr+0x3bf>
 80497a6:	83 7c 24 08 00       	cmpl   $0x0,0x8(%esp)
 80497ab:	0f 88 a1 00 00 00    	js     8049852 <submitr+0x495>
 80497b1:	89 6c 24 40          	mov    %ebp,0x40(%esp)
 80497b5:	c7 44 24 44 00 00 00 	movl   $0x0,0x44(%esp)
 80497bc:	00 
 80497bd:	8d 44 24 4c          	lea    0x4c(%esp),%eax
 80497c1:	89 44 24 48          	mov    %eax,0x48(%esp)
 80497c5:	b9 00 20 00 00       	mov    $0x2000,%ecx
 80497ca:	8d 94 24 4c 20 00 00 	lea    0x204c(%esp),%edx
 80497d1:	8d 44 24 40          	lea    0x40(%esp),%eax
 80497d5:	e8 32 fb ff ff       	call   804930c <rio_readlineb>
 80497da:	85 c0                	test   %eax,%eax
 80497dc:	0f 8e d6 00 00 00    	jle    80498b8 <submitr+0x4fb>
 80497e2:	83 ec 0c             	sub    $0xc,%esp
 80497e5:	8d 84 24 58 80 00 00 	lea    0x8058(%esp),%eax
 80497ec:	50                   	push   %eax
 80497ed:	8d 44 24 3c          	lea    0x3c(%esp),%eax
 80497f1:	50                   	push   %eax
 80497f2:	8d 84 24 60 60 00 00 	lea    0x6060(%esp),%eax
 80497f9:	50                   	push   %eax
 80497fa:	68 9b a3 04 08       	push   $0x804a39b
 80497ff:	8d 84 24 68 20 00 00 	lea    0x2068(%esp),%eax
 8049806:	50                   	push   %eax
 8049807:	e8 04 f0 ff ff       	call   8048810 <__isoc99_sscanf@plt>
 804980c:	8b 44 24 4c          	mov    0x4c(%esp),%eax
 8049810:	83 c4 20             	add    $0x20,%esp
 8049813:	3d c8 00 00 00       	cmp    $0xc8,%eax
 8049818:	0f 84 a6 01 00 00    	je     80499c4 <submitr+0x607>
 804981e:	83 ec 08             	sub    $0x8,%esp
 8049821:	8d 94 24 54 80 00 00 	lea    0x8054(%esp),%edx
 8049828:	52                   	push   %edx
 8049829:	50                   	push   %eax
 804982a:	68 ac a2 04 08       	push   $0x804a2ac
 804982f:	6a ff                	push   $0xffffffff
 8049831:	6a 01                	push   $0x1
 8049833:	ff 74 24 30          	push   0x30(%esp)
 8049837:	e8 84 f0 ff ff       	call   80488c0 <__sprintf_chk@plt>
 804983c:	83 c4 14             	add    $0x14,%esp
 804983f:	55                   	push   %ebp
 8049840:	e8 5b f0 ff ff       	call   80488a0 <close@plt>
 8049845:	83 c4 10             	add    $0x10,%esp
 8049848:	b8 ff ff ff ff       	mov    $0xffffffff,%eax
 804984d:	e9 02 02 00 00       	jmp    8049a54 <submitr+0x697>
 8049852:	8b 44 24 14          	mov    0x14(%esp),%eax
 8049856:	c7 00 45 72 72 6f    	movl   $0x6f727245,(%eax)
 804985c:	c7 40 04 72 3a 20 43 	movl   $0x43203a72,0x4(%eax)
 8049863:	c7 40 08 6c 69 65 6e 	movl   $0x6e65696c,0x8(%eax)
 804986a:	c7 40 0c 74 20 75 6e 	movl   $0x6e752074,0xc(%eax)
 8049871:	c7 40 10 61 62 6c 65 	movl   $0x656c6261,0x10(%eax)
 8049878:	c7 40 14 20 74 6f 20 	movl   $0x206f7420,0x14(%eax)
 804987f:	c7 40 18 77 72 69 74 	movl   $0x74697277,0x18(%eax)
 8049886:	c7 40 1c 65 20 74 6f 	movl   $0x6f742065,0x1c(%eax)
 804988d:	c7 40 20 20 74 68 65 	movl   $0x65687420,0x20(%eax)
 8049894:	c7 40 24 20 73 65 72 	movl   $0x72657320,0x24(%eax)
 804989b:	c7 40 28 76 65 72 00 	movl   $0x726576,0x28(%eax)
 80498a2:	83 ec 0c             	sub    $0xc,%esp
 80498a5:	55                   	push   %ebp
 80498a6:	e8 f5 ef ff ff       	call   80488a0 <close@plt>
 80498ab:	83 c4 10             	add    $0x10,%esp
 80498ae:	b8 ff ff ff ff       	mov    $0xffffffff,%eax
 80498b3:	e9 9c 01 00 00       	jmp    8049a54 <submitr+0x697>
 80498b8:	8b 44 24 14          	mov    0x14(%esp),%eax
 80498bc:	c7 00 45 72 72 6f    	movl   $0x6f727245,(%eax)
 80498c2:	c7 40 04 72 3a 20 43 	movl   $0x43203a72,0x4(%eax)
 80498c9:	c7 40 08 6c 69 65 6e 	movl   $0x6e65696c,0x8(%eax)
 80498d0:	c7 40 0c 74 20 75 6e 	movl   $0x6e752074,0xc(%eax)
 80498d7:	c7 40 10 61 62 6c 65 	movl   $0x656c6261,0x10(%eax)
 80498de:	c7 40 14 20 74 6f 20 	movl   $0x206f7420,0x14(%eax)
 80498e5:	c7 40 18 72 65 61 64 	movl   $0x64616572,0x18(%eax)
 80498ec:	c7 40 1c 20 66 69 72 	movl   $0x72696620,0x1c(%eax)
 80498f3:	c7 40 20 73 74 20 68 	movl   $0x68207473,0x20(%eax)
 80498fa:	c7 40 24 65 61 64 65 	movl   $0x65646165,0x24(%eax)
 8049901:	c7 40 28 72 20 66 72 	movl   $0x72662072,0x28(%eax)
 8049908:	c7 40 2c 6f 6d 20 73 	movl   $0x73206d6f,0x2c(%eax)
 804990f:	c7 40 30 65 72 76 65 	movl   $0x65767265,0x30(%eax)
 8049916:	66 c7 40 34 72 00    	movw   $0x72,0x34(%eax)
 804991c:	83 ec 0c             	sub    $0xc,%esp
 804991f:	55                   	push   %ebp
 8049920:	e8 7b ef ff ff       	call   80488a0 <close@plt>
 8049925:	83 c4 10             	add    $0x10,%esp
 8049928:	b8 ff ff ff ff       	mov    $0xffffffff,%eax
 804992d:	e9 22 01 00 00       	jmp    8049a54 <submitr+0x697>
 8049932:	8b 44 24 14          	mov    0x14(%esp),%eax
 8049936:	c7 00 45 72 72 6f    	movl   $0x6f727245,(%eax)
 804993c:	c7 40 04 72 3a 20 43 	movl   $0x43203a72,0x4(%eax)
 8049943:	c7 40 08 6c 69 65 6e 	movl   $0x6e65696c,0x8(%eax)
 804994a:	c7 40 0c 74 20 75 6e 	movl   $0x6e752074,0xc(%eax)
 8049951:	c7 40 10 61 62 6c 65 	movl   $0x656c6261,0x10(%eax)
 8049958:	c7 40 14 20 74 6f 20 	movl   $0x206f7420,0x14(%eax)
 804995f:	c7 40 18 72 65 61 64 	movl   $0x64616572,0x18(%eax)
 8049966:	c7 40 1c 20 68 65 61 	movl   $0x61656820,0x1c(%eax)
 804996d:	c7 40 20 64 65 72 73 	movl   $0x73726564,0x20(%eax)
 8049974:	c7 40 24 20 66 72 6f 	movl   $0x6f726620,0x24(%eax)
 804997b:	c7 40 28 6d 20 73 65 	movl   $0x6573206d,0x28(%eax)
 8049982:	c7 40 2c 72 76 65 72 	movl   $0x72657672,0x2c(%eax)
 8049989:	c6 40 30 00          	movb   $0x0,0x30(%eax)
 804998d:	83 ec 0c             	sub    $0xc,%esp
 8049990:	55                   	push   %ebp
 8049991:	e8 0a ef ff ff       	call   80488a0 <close@plt>
 8049996:	83 c4 10             	add    $0x10,%esp
 8049999:	b8 ff ff ff ff       	mov    $0xffffffff,%eax
 804999e:	e9 b1 00 00 00       	jmp    8049a54 <submitr+0x697>
 80499a3:	85 c0                	test   %eax,%eax
 80499a5:	74 4b                	je     80499f2 <submitr+0x635>
 80499a7:	b9 00 20 00 00       	mov    $0x2000,%ecx
 80499ac:	8d 94 24 4c 20 00 00 	lea    0x204c(%esp),%edx
 80499b3:	8d 44 24 40          	lea    0x40(%esp),%eax
 80499b7:	e8 50 f9 ff ff       	call   804930c <rio_readlineb>
 80499bc:	85 c0                	test   %eax,%eax
 80499be:	0f 8e 6e ff ff ff    	jle    8049932 <submitr+0x575>
 80499c4:	0f b6 94 24 4c 20 00 	movzbl 0x204c(%esp),%edx
 80499cb:	00 
 80499cc:	b8 0d 00 00 00       	mov    $0xd,%eax
 80499d1:	29 d0                	sub    %edx,%eax
 80499d3:	75 ce                	jne    80499a3 <submitr+0x5e6>
 80499d5:	0f b6 94 24 4d 20 00 	movzbl 0x204d(%esp),%edx
 80499dc:	00 
 80499dd:	b8 0a 00 00 00       	mov    $0xa,%eax
 80499e2:	29 d0                	sub    %edx,%eax
 80499e4:	75 bd                	jne    80499a3 <submitr+0x5e6>
 80499e6:	0f b6 84 24 4e 20 00 	movzbl 0x204e(%esp),%eax
 80499ed:	00 
 80499ee:	f7 d8                	neg    %eax
 80499f0:	eb b1                	jmp    80499a3 <submitr+0x5e6>
 80499f2:	b9 00 20 00 00       	mov    $0x2000,%ecx
 80499f7:	8d 94 24 4c 20 00 00 	lea    0x204c(%esp),%edx
 80499fe:	8d 44 24 40          	lea    0x40(%esp),%eax
 8049a02:	e8 05 f9 ff ff       	call   804930c <rio_readlineb>
 8049a07:	85 c0                	test   %eax,%eax
 8049a09:	7e 68                	jle    8049a73 <submitr+0x6b6>
 8049a0b:	83 ec 08             	sub    $0x8,%esp
 8049a0e:	8d 84 24 54 20 00 00 	lea    0x2054(%esp),%eax
 8049a15:	50                   	push   %eax
 8049a16:	8b 7c 24 20          	mov    0x20(%esp),%edi
 8049a1a:	57                   	push   %edi
 8049a1b:	e8 80 ed ff ff       	call   80487a0 <strcpy@plt>
 8049a20:	89 2c 24             	mov    %ebp,(%esp)
 8049a23:	e8 78 ee ff ff       	call   80488a0 <close@plt>
 8049a28:	0f b6 17             	movzbl (%edi),%edx
 8049a2b:	b8 4f 00 00 00       	mov    $0x4f,%eax
 8049a30:	83 c4 10             	add    $0x10,%esp
 8049a33:	29 d0                	sub    %edx,%eax
 8049a35:	75 13                	jne    8049a4a <submitr+0x68d>
 8049a37:	0f b6 57 01          	movzbl 0x1(%edi),%edx
 8049a3b:	b8 4b 00 00 00       	mov    $0x4b,%eax
 8049a40:	29 d0                	sub    %edx,%eax
 8049a42:	75 06                	jne    8049a4a <submitr+0x68d>
 8049a44:	0f b6 47 02          	movzbl 0x2(%edi),%eax
 8049a48:	f7 d8                	neg    %eax
 8049a4a:	85 c0                	test   %eax,%eax
 8049a4c:	0f 95 c0             	setne  %al
 8049a4f:	0f b6 c0             	movzbl %al,%eax
 8049a52:	f7 d8                	neg    %eax
 8049a54:	8b bc 24 4c a0 00 00 	mov    0xa04c(%esp),%edi
 8049a5b:	65 33 3d 14 00 00 00 	xor    %gs:0x14,%edi
 8049a62:	0f 85 2a 01 00 00    	jne    8049b92 <submitr+0x7d5>
 8049a68:	81 c4 5c a0 00 00    	add    $0xa05c,%esp
 8049a6e:	5b                   	pop    %ebx
 8049a6f:	5e                   	pop    %esi
 8049a70:	5f                   	pop    %edi
 8049a71:	5d                   	pop    %ebp
 8049a72:	c3                   	ret    
 8049a73:	8b 44 24 14          	mov    0x14(%esp),%eax
 8049a77:	c7 00 45 72 72 6f    	movl   $0x6f727245,(%eax)
 8049a7d:	c7 40 04 72 3a 20 43 	movl   $0x43203a72,0x4(%eax)
 8049a84:	c7 40 08 6c 69 65 6e 	movl   $0x6e65696c,0x8(%eax)
 8049a8b:	c7 40 0c 74 20 75 6e 	movl   $0x6e752074,0xc(%eax)
 8049a92:	c7 40 10 61 62 6c 65 	movl   $0x656c6261,0x10(%eax)
 8049a99:	c7 40 14 20 74 6f 20 	movl   $0x206f7420,0x14(%eax)
 8049aa0:	c7 40 18 72 65 61 64 	movl   $0x64616572,0x18(%eax)
 8049aa7:	c7 40 1c 20 73 74 61 	movl   $0x61747320,0x1c(%eax)
 8049aae:	c7 40 20 74 75 73 20 	movl   $0x20737574,0x20(%eax)
 8049ab5:	c7 40 24 6d 65 73 73 	movl   $0x7373656d,0x24(%eax)
 8049abc:	c7 40 28 61 67 65 20 	movl   $0x20656761,0x28(%eax)
 8049ac3:	c7 40 2c 66 72 6f 6d 	movl   $0x6d6f7266,0x2c(%eax)
 8049aca:	c7 40 30 20 73 65 72 	movl   $0x72657320,0x30(%eax)
 8049ad1:	c7 40 34 76 65 72 00 	movl   $0x726576,0x34(%eax)
 8049ad8:	83 ec 0c             	sub    $0xc,%esp
 8049adb:	55                   	push   %ebp
 8049adc:	e8 bf ed ff ff       	call   80488a0 <close@plt>
 8049ae1:	83 c4 10             	add    $0x10,%esp
 8049ae4:	b8 ff ff ff ff       	mov    $0xffffffff,%eax
 8049ae9:	e9 66 ff ff ff       	jmp    8049a54 <submitr+0x697>
 8049aee:	a1 dc a2 04 08       	mov    0x804a2dc,%eax
 8049af3:	8b 5c 24 14          	mov    0x14(%esp),%ebx
 8049af7:	89 03                	mov    %eax,(%ebx)
 8049af9:	a1 1b a3 04 08       	mov    0x804a31b,%eax
 8049afe:	89 43 3f             	mov    %eax,0x3f(%ebx)
 8049b01:	8d 7b 04             	lea    0x4(%ebx),%edi
 8049b04:	83 e7 fc             	and    $0xfffffffc,%edi
 8049b07:	29 fb                	sub    %edi,%ebx
 8049b09:	89 d8                	mov    %ebx,%eax
 8049b0b:	be dc a2 04 08       	mov    $0x804a2dc,%esi
 8049b10:	29 de                	sub    %ebx,%esi
 8049b12:	83 c0 43             	add    $0x43,%eax
 8049b15:	c1 e8 02             	shr    $0x2,%eax
 8049b18:	89 c1                	mov    %eax,%ecx
 8049b1a:	f3 a5                	rep movsl %ds:(%esi),%es:(%edi)
 8049b1c:	83 ec 0c             	sub    $0xc,%esp
 8049b1f:	55                   	push   %ebp
 8049b20:	e8 7b ed ff ff       	call   80488a0 <close@plt>
 8049b25:	83 c4 10             	add    $0x10,%esp
 8049b28:	b8 ff ff ff ff       	mov    $0xffffffff,%eax
 8049b2d:	e9 22 ff ff ff       	jmp    8049a54 <submitr+0x697>
 8049b32:	8d 84 24 4c 40 00 00 	lea    0x404c(%esp),%eax
 8049b39:	50                   	push   %eax
 8049b3a:	ff 74 24 14          	push   0x14(%esp)
 8049b3e:	ff 74 24 14          	push   0x14(%esp)
 8049b42:	ff 74 24 14          	push   0x14(%esp)
 8049b46:	68 20 a3 04 08       	push   $0x804a320
 8049b4b:	68 00 20 00 00       	push   $0x2000
 8049b50:	6a 01                	push   $0x1
 8049b52:	8d bc 24 68 20 00 00 	lea    0x2068(%esp),%edi
 8049b59:	57                   	push   %edi
 8049b5a:	e8 61 ed ff ff       	call   80488c0 <__sprintf_chk@plt>
 8049b5f:	b8 00 00 00 00       	mov    $0x0,%eax
 8049b64:	b9 ff ff ff ff       	mov    $0xffffffff,%ecx
 8049b69:	f2 ae                	repnz scas %es:(%edi),%al
 8049b6b:	f7 d1                	not    %ecx
 8049b6d:	8d 41 ff             	lea    -0x1(%ecx),%eax
 8049b70:	89 44 24 28          	mov    %eax,0x28(%esp)
 8049b74:	83 c4 20             	add    $0x20,%esp
 8049b77:	89 c3                	mov    %eax,%ebx
 8049b79:	8d b4 24 4c 20 00 00 	lea    0x204c(%esp),%esi
 8049b80:	bf 00 00 00 00       	mov    $0x0,%edi
 8049b85:	85 c0                	test   %eax,%eax
 8049b87:	0f 85 f5 fb ff ff    	jne    8049782 <submitr+0x3c5>
 8049b8d:	e9 1f fc ff ff       	jmp    80497b1 <submitr+0x3f4>
 8049b92:	e8 f9 eb ff ff       	call   8048790 <__stack_chk_fail@plt>

08049b97 <init_timeout>:
 8049b97:	53                   	push   %ebx
 8049b98:	83 ec 08             	sub    $0x8,%esp
 8049b9b:	8b 5c 24 10          	mov    0x10(%esp),%ebx
 8049b9f:	85 db                	test   %ebx,%ebx
 8049ba1:	74 24                	je     8049bc7 <init_timeout+0x30>
 8049ba3:	83 ec 08             	sub    $0x8,%esp
 8049ba6:	68 e9 92 04 08       	push   $0x80492e9
 8049bab:	6a 0e                	push   $0xe
 8049bad:	e8 ae eb ff ff       	call   8048760 <signal@plt>
 8049bb2:	85 db                	test   %ebx,%ebx
 8049bb4:	b8 00 00 00 00       	mov    $0x0,%eax
 8049bb9:	0f 48 d8             	cmovs  %eax,%ebx
 8049bbc:	89 1c 24             	mov    %ebx,(%esp)
 8049bbf:	e8 bc eb ff ff       	call   8048780 <alarm@plt>
 8049bc4:	83 c4 10             	add    $0x10,%esp
 8049bc7:	83 c4 08             	add    $0x8,%esp
 8049bca:	5b                   	pop    %ebx
 8049bcb:	c3                   	ret    

08049bcc <init_driver>:
 8049bcc:	57                   	push   %edi
 8049bcd:	56                   	push   %esi
 8049bce:	53                   	push   %ebx
 8049bcf:	83 ec 28             	sub    $0x28,%esp
 8049bd2:	8b 74 24 38          	mov    0x38(%esp),%esi
 8049bd6:	65 a1 14 00 00 00    	mov    %gs:0x14,%eax
 8049bdc:	89 44 24 24          	mov    %eax,0x24(%esp)
 8049be0:	31 c0                	xor    %eax,%eax
 8049be2:	6a 01                	push   $0x1
 8049be4:	6a 0d                	push   $0xd
 8049be6:	e8 75 eb ff ff       	call   8048760 <signal@plt>
 8049beb:	83 c4 08             	add    $0x8,%esp
 8049bee:	6a 01                	push   $0x1
 8049bf0:	6a 1d                	push   $0x1d
 8049bf2:	e8 69 eb ff ff       	call   8048760 <signal@plt>
 8049bf7:	83 c4 08             	add    $0x8,%esp
 8049bfa:	6a 01                	push   $0x1
 8049bfc:	6a 1d                	push   $0x1d
 8049bfe:	e8 5d eb ff ff       	call   8048760 <signal@plt>
 8049c03:	83 c4 0c             	add    $0xc,%esp
 8049c06:	6a 00                	push   $0x0
 8049c08:	6a 01                	push   $0x1
 8049c0a:	6a 02                	push   $0x2
 8049c0c:	e8 3f ec ff ff       	call   8048850 <socket@plt>
 8049c11:	83 c4 10             	add    $0x10,%esp
 8049c14:	85 c0                	test   %eax,%eax
 8049c16:	0f 88 a9 00 00 00    	js     8049cc5 <init_driver+0xf9>
 8049c1c:	89 c3                	mov    %eax,%ebx
 8049c1e:	83 ec 0c             	sub    $0xc,%esp
 8049c21:	68 ac a3 04 08       	push   $0x804a3ac
 8049c26:	e8 45 ec ff ff       	call   8048870 <gethostbyname@plt>
 8049c2b:	83 c4 10             	add    $0x10,%esp
 8049c2e:	85 c0                	test   %eax,%eax
 8049c30:	0f 84 da 00 00 00    	je     8049d10 <init_driver+0x144>
 8049c36:	8d 7c 24 0c          	lea    0xc(%esp),%edi
 8049c3a:	c7 44 24 0c 00 00 00 	movl   $0x0,0xc(%esp)
 8049c41:	00 
 8049c42:	c7 44 24 10 00 00 00 	movl   $0x0,0x10(%esp)
 8049c49:	00 
 8049c4a:	c7 44 24 14 00 00 00 	movl   $0x0,0x14(%esp)
 8049c51:	00 
 8049c52:	c7 44 24 18 00 00 00 	movl   $0x0,0x18(%esp)
 8049c59:	00 
 8049c5a:	66 c7 44 24 0c 02 00 	movw   $0x2,0xc(%esp)
 8049c61:	6a 0c                	push   $0xc
 8049c63:	ff 70 0c             	push   0xc(%eax)
 8049c66:	8b 40 10             	mov    0x10(%eax),%eax
 8049c69:	ff 30                	push   (%eax)
 8049c6b:	8d 44 24 1c          	lea    0x1c(%esp),%eax
 8049c6f:	50                   	push   %eax
 8049c70:	e8 5b eb ff ff       	call   80487d0 <__memmove_chk@plt>
 8049c75:	66 c7 44 24 1e 3b 6e 	movw   $0x6e3b,0x1e(%esp)
 8049c7c:	83 c4 0c             	add    $0xc,%esp
 8049c7f:	6a 10                	push   $0x10
 8049c81:	57                   	push   %edi
 8049c82:	53                   	push   %ebx
 8049c83:	e8 08 ec ff ff       	call   8048890 <connect@plt>
 8049c88:	83 c4 10             	add    $0x10,%esp
 8049c8b:	85 c0                	test   %eax,%eax
 8049c8d:	0f 88 e9 00 00 00    	js     8049d7c <init_driver+0x1b0>
 8049c93:	83 ec 0c             	sub    $0xc,%esp
 8049c96:	53                   	push   %ebx
 8049c97:	e8 04 ec ff ff       	call   80488a0 <close@plt>
 8049c9c:	66 c7 06 4f 4b       	movw   $0x4b4f,(%esi)
 8049ca1:	c6 46 02 00          	movb   $0x0,0x2(%esi)
 8049ca5:	83 c4 10             	add    $0x10,%esp
 8049ca8:	b8 00 00 00 00       	mov    $0x0,%eax
 8049cad:	8b 54 24 1c          	mov    0x1c(%esp),%edx
 8049cb1:	65 33 15 14 00 00 00 	xor    %gs:0x14,%edx
 8049cb8:	0f 85 eb 00 00 00    	jne    8049da9 <init_driver+0x1dd>
 8049cbe:	83 c4 20             	add    $0x20,%esp
 8049cc1:	5b                   	pop    %ebx
 8049cc2:	5e                   	pop    %esi
 8049cc3:	5f                   	pop    %edi
 8049cc4:	c3                   	ret    
 8049cc5:	c7 06 45 72 72 6f    	movl   $0x6f727245,(%esi)
 8049ccb:	c7 46 04 72 3a 20 43 	movl   $0x43203a72,0x4(%esi)
 8049cd2:	c7 46 08 6c 69 65 6e 	movl   $0x6e65696c,0x8(%esi)
 8049cd9:	c7 46 0c 74 20 75 6e 	movl   $0x6e752074,0xc(%esi)
 8049ce0:	c7 46 10 61 62 6c 65 	movl   $0x656c6261,0x10(%esi)
 8049ce7:	c7 46 14 20 74 6f 20 	movl   $0x206f7420,0x14(%esi)
 8049cee:	c7 46 18 63 72 65 61 	movl   $0x61657263,0x18(%esi)
 8049cf5:	c7 46 1c 74 65 20 73 	movl   $0x73206574,0x1c(%esi)
 8049cfc:	c7 46 20 6f 63 6b 65 	movl   $0x656b636f,0x20(%esi)
 8049d03:	66 c7 46 24 74 00    	movw   $0x74,0x24(%esi)
 8049d09:	b8 ff ff ff ff       	mov    $0xffffffff,%eax
 8049d0e:	eb 9d                	jmp    8049cad <init_driver+0xe1>
 8049d10:	c7 06 45 72 72 6f    	movl   $0x6f727245,(%esi)
 8049d16:	c7 46 04 72 3a 20 44 	movl   $0x44203a72,0x4(%esi)
 8049d1d:	c7 46 08 4e 53 20 69 	movl   $0x6920534e,0x8(%esi)
 8049d24:	c7 46 0c 73 20 75 6e 	movl   $0x6e752073,0xc(%esi)
 8049d2b:	c7 46 10 61 62 6c 65 	movl   $0x656c6261,0x10(%esi)
 8049d32:	c7 46 14 20 74 6f 20 	movl   $0x206f7420,0x14(%esi)
 8049d39:	c7 46 18 72 65 73 6f 	movl   $0x6f736572,0x18(%esi)
 8049d40:	c7 46 1c 6c 76 65 20 	movl   $0x2065766c,0x1c(%esi)
 8049d47:	c7 46 20 73 65 72 76 	movl   $0x76726573,0x20(%esi)
 8049d4e:	c7 46 24 65 72 20 61 	movl   $0x61207265,0x24(%esi)
 8049d55:	c7 46 28 64 64 72 65 	movl   $0x65726464,0x28(%esi)
 8049d5c:	66 c7 46 2c 73 73    	movw   $0x7373,0x2c(%esi)
 8049d62:	c6 46 2e 00          	movb   $0x0,0x2e(%esi)
 8049d66:	83 ec 0c             	sub    $0xc,%esp
 8049d69:	53                   	push   %ebx
 8049d6a:	e8 31 eb ff ff       	call   80488a0 <close@plt>
 8049d6f:	83 c4 10             	add    $0x10,%esp
 8049d72:	b8 ff ff ff ff       	mov    $0xffffffff,%eax
 8049d77:	e9 31 ff ff ff       	jmp    8049cad <init_driver+0xe1>
 8049d7c:	83 ec 0c             	sub    $0xc,%esp
 8049d7f:	68 ac a3 04 08       	push   $0x804a3ac
 8049d84:	68 6c a3 04 08       	push   $0x804a36c
 8049d89:	6a ff                	push   $0xffffffff
 8049d8b:	6a 01                	push   $0x1
 8049d8d:	56                   	push   %esi
 8049d8e:	e8 2d eb ff ff       	call   80488c0 <__sprintf_chk@plt>
 8049d93:	83 c4 14             	add    $0x14,%esp
 8049d96:	53                   	push   %ebx
 8049d97:	e8 04 eb ff ff       	call   80488a0 <close@plt>
 8049d9c:	83 c4 10             	add    $0x10,%esp
 8049d9f:	b8 ff ff ff ff       	mov    $0xffffffff,%eax
 8049da4:	e9 04 ff ff ff       	jmp    8049cad <init_driver+0xe1>
 8049da9:	e8 e2 e9 ff ff       	call   8048790 <__stack_chk_fail@plt>

08049dae <driver_post>:
 8049dae:	53                   	push   %ebx
 8049daf:	83 ec 08             	sub    $0x8,%esp
 8049db2:	8b 54 24 10          	mov    0x10(%esp),%edx
 8049db6:	8b 44 24 18          	mov    0x18(%esp),%eax
 8049dba:	8b 5c 24 1c          	mov    0x1c(%esp),%ebx
 8049dbe:	85 c0                	test   %eax,%eax
 8049dc0:	75 17                	jne    8049dd9 <driver_post+0x2b>
 8049dc2:	85 d2                	test   %edx,%edx
 8049dc4:	74 05                	je     8049dcb <driver_post+0x1d>
 8049dc6:	80 3a 00             	cmpb   $0x0,(%edx)
 8049dc9:	75 34                	jne    8049dff <driver_post+0x51>
 8049dcb:	66 c7 03 4f 4b       	movw   $0x4b4f,(%ebx)
 8049dd0:	c6 43 02 00          	movb   $0x0,0x2(%ebx)
 8049dd4:	83 c4 08             	add    $0x8,%esp
 8049dd7:	5b                   	pop    %ebx
 8049dd8:	c3                   	ret    
 8049dd9:	83 ec 04             	sub    $0x4,%esp
 8049ddc:	ff 74 24 18          	push   0x18(%esp)
 8049de0:	68 ba a3 04 08       	push   $0x804a3ba
 8049de5:	6a 01                	push   $0x1
 8049de7:	e8 54 ea ff ff       	call   8048840 <__printf_chk@plt>
 8049dec:	66 c7 03 4f 4b       	movw   $0x4b4f,(%ebx)
 8049df1:	c6 43 02 00          	movb   $0x0,0x2(%ebx)
 8049df5:	83 c4 10             	add    $0x10,%esp
 8049df8:	b8 00 00 00 00       	mov    $0x0,%eax
 8049dfd:	eb d5                	jmp    8049dd4 <driver_post+0x26>
 8049dff:	83 ec 04             	sub    $0x4,%esp
 8049e02:	53                   	push   %ebx
 8049e03:	ff 74 24 1c          	push   0x1c(%esp)
 8049e07:	68 d1 a3 04 08       	push   $0x804a3d1
 8049e0c:	52                   	push   %edx
 8049e0d:	68 d9 a3 04 08       	push   $0x804a3d9
 8049e12:	68 6e 3b 00 00       	push   $0x3b6e
 8049e17:	68 ac a3 04 08       	push   $0x804a3ac
 8049e1c:	e8 9c f5 ff ff       	call   80493bd <submitr>
 8049e21:	83 c4 20             	add    $0x20,%esp
 8049e24:	eb ae                	jmp    8049dd4 <driver_post+0x26>
 8049e26:	66 90                	xchg   %ax,%ax
 8049e28:	66 90                	xchg   %ax,%ax
 8049e2a:	66 90                	xchg   %ax,%ax
 8049e2c:	66 90                	xchg   %ax,%ax
 8049e2e:	66 90                	xchg   %ax,%ax

08049e30 <__libc_csu_init>:
 8049e30:	55                   	push   %ebp
 8049e31:	57                   	push   %edi
 8049e32:	56                   	push   %esi
 8049e33:	53                   	push   %ebx
 8049e34:	e8 d7 ea ff ff       	call   8048910 <__x86.get_pc_thunk.bx>
 8049e39:	81 c3 c7 21 00 00    	add    $0x21c7,%ebx
 8049e3f:	83 ec 0c             	sub    $0xc,%esp
 8049e42:	8b 6c 24 20          	mov    0x20(%esp),%ebp
 8049e46:	8d b3 0c ff ff ff    	lea    -0xf4(%ebx),%esi
 8049e4c:	e8 a3 e8 ff ff       	call   80486f4 <_init>
 8049e51:	8d 83 08 ff ff ff    	lea    -0xf8(%ebx),%eax
 8049e57:	29 c6                	sub    %eax,%esi
 8049e59:	c1 fe 02             	sar    $0x2,%esi
 8049e5c:	85 f6                	test   %esi,%esi
 8049e5e:	74 25                	je     8049e85 <__libc_csu_init+0x55>
 8049e60:	31 ff                	xor    %edi,%edi
 8049e62:	8d b6 00 00 00 00    	lea    0x0(%esi),%esi
 8049e68:	83 ec 04             	sub    $0x4,%esp
 8049e6b:	ff 74 24 2c          	push   0x2c(%esp)
 8049e6f:	ff 74 24 2c          	push   0x2c(%esp)
 8049e73:	55                   	push   %ebp
 8049e74:	ff 94 bb 08 ff ff ff 	call   *-0xf8(%ebx,%edi,4)
 8049e7b:	83 c7 01             	add    $0x1,%edi
 8049e7e:	83 c4 10             	add    $0x10,%esp
 8049e81:	39 fe                	cmp    %edi,%esi
 8049e83:	75 e3                	jne    8049e68 <__libc_csu_init+0x38>
 8049e85:	83 c4 0c             	add    $0xc,%esp
 8049e88:	5b                   	pop    %ebx
 8049e89:	5e                   	pop    %esi
 8049e8a:	5f                   	pop    %edi
 8049e8b:	5d                   	pop    %ebp
 8049e8c:	c3                   	ret    
 8049e8d:	8d 76 00             	lea    0x0(%esi),%esi

08049e90 <__libc_csu_fini>:
 8049e90:	f3 c3                	repz ret 

Disassembly of section .fini:

08049e94 <_fini>:
 8049e94:	53                   	push   %ebx
 8049e95:	83 ec 08             	sub    $0x8,%esp
 8049e98:	e8 73 ea ff ff       	call   8048910 <__x86.get_pc_thunk.bx>
 8049e9d:	81 c3 63 21 00 00    	add    $0x2163,%ebx
 8049ea3:	83 c4 08             	add    $0x8,%esp
 8049ea6:	5b                   	pop    %ebx
 8049ea7:	c3                   	ret    
